ARM GAS  C:\Users\En\AppData\Local\Temp\cckBz7PA.s 			page 1


   1              		.cpu cortex-m0
   2              		.fpu softvfp
   3              		.eabi_attribute 20, 1
   4              		.eabi_attribute 21, 1
   5              		.eabi_attribute 23, 3
   6              		.eabi_attribute 24, 1
   7              		.eabi_attribute 25, 1
   8              		.eabi_attribute 26, 1
   9              		.eabi_attribute 30, 6
  10              		.eabi_attribute 34, 0
  11              		.eabi_attribute 18, 4
  12              		.code	16
  13              		.file	"Count_Bits_PM.c"
  14              		.text
  15              	.Ltext0:
  16              		.cfi_sections	.debug_frame
  17              		.comm	Count_Bits_backup,2,4
  18              		.section	.text.Count_Bits_SaveConfig,"ax",%progbits
  19              		.align	2
  20              		.global	Count_Bits_SaveConfig
  21              		.code	16
  22              		.thumb_func
  23              		.type	Count_Bits_SaveConfig, %function
  24              	Count_Bits_SaveConfig:
  25              	.LFB0:
  26              		.file 1 ".\\Generated_Source\\PSoC4\\Count_Bits_PM.c"
   1:.\Generated_Source\PSoC4/Count_Bits_PM.c **** /*******************************************************************************
   2:.\Generated_Source\PSoC4/Count_Bits_PM.c **** * File Name: Count_Bits_PM.c
   3:.\Generated_Source\PSoC4/Count_Bits_PM.c **** * Version 1.0
   4:.\Generated_Source\PSoC4/Count_Bits_PM.c **** *
   5:.\Generated_Source\PSoC4/Count_Bits_PM.c **** * Description:
   6:.\Generated_Source\PSoC4/Count_Bits_PM.c **** *  This file provides Low power mode APIs for Count7 component.
   7:.\Generated_Source\PSoC4/Count_Bits_PM.c **** *
   8:.\Generated_Source\PSoC4/Count_Bits_PM.c **** * Note:
   9:.\Generated_Source\PSoC4/Count_Bits_PM.c **** *  None
  10:.\Generated_Source\PSoC4/Count_Bits_PM.c **** *
  11:.\Generated_Source\PSoC4/Count_Bits_PM.c **** ********************************************************************************
  12:.\Generated_Source\PSoC4/Count_Bits_PM.c **** * Copyright 2013, Cypress Semiconductor Corporation.  All rights reserved.
  13:.\Generated_Source\PSoC4/Count_Bits_PM.c **** * You may use this file only in accordance with the license, terms, conditions,
  14:.\Generated_Source\PSoC4/Count_Bits_PM.c **** * disclaimers, and limitations in the end user license agreement accompanying
  15:.\Generated_Source\PSoC4/Count_Bits_PM.c **** * the software package with which this file was provided.
  16:.\Generated_Source\PSoC4/Count_Bits_PM.c **** *******************************************************************************/
  17:.\Generated_Source\PSoC4/Count_Bits_PM.c **** 
  18:.\Generated_Source\PSoC4/Count_Bits_PM.c **** #include "Count_Bits.h"
  19:.\Generated_Source\PSoC4/Count_Bits_PM.c **** 
  20:.\Generated_Source\PSoC4/Count_Bits_PM.c **** 
  21:.\Generated_Source\PSoC4/Count_Bits_PM.c **** Count_Bits_BACKUP_STRUCT Count_Bits_backup;
  22:.\Generated_Source\PSoC4/Count_Bits_PM.c **** 
  23:.\Generated_Source\PSoC4/Count_Bits_PM.c **** 
  24:.\Generated_Source\PSoC4/Count_Bits_PM.c **** /*******************************************************************************
  25:.\Generated_Source\PSoC4/Count_Bits_PM.c **** * Function Name: Count_Bits_SaveConfig
  26:.\Generated_Source\PSoC4/Count_Bits_PM.c **** ********************************************************************************
  27:.\Generated_Source\PSoC4/Count_Bits_PM.c **** *
  28:.\Generated_Source\PSoC4/Count_Bits_PM.c **** * Summary:
  29:.\Generated_Source\PSoC4/Count_Bits_PM.c **** *  This function saves the component configuration and non-retention registers.
  30:.\Generated_Source\PSoC4/Count_Bits_PM.c **** *  This function is called by the Count7_Sleep() function.
  31:.\Generated_Source\PSoC4/Count_Bits_PM.c **** *
ARM GAS  C:\Users\En\AppData\Local\Temp\cckBz7PA.s 			page 2


  32:.\Generated_Source\PSoC4/Count_Bits_PM.c **** * Parameters:
  33:.\Generated_Source\PSoC4/Count_Bits_PM.c **** *  None
  34:.\Generated_Source\PSoC4/Count_Bits_PM.c **** *
  35:.\Generated_Source\PSoC4/Count_Bits_PM.c **** * Return:
  36:.\Generated_Source\PSoC4/Count_Bits_PM.c **** *  None
  37:.\Generated_Source\PSoC4/Count_Bits_PM.c **** *
  38:.\Generated_Source\PSoC4/Count_Bits_PM.c **** * Global Variables:
  39:.\Generated_Source\PSoC4/Count_Bits_PM.c **** *  Count_Bits_backup - used to save component configuration and non-
  40:.\Generated_Source\PSoC4/Count_Bits_PM.c **** *  retention registers before enter sleep mode.
  41:.\Generated_Source\PSoC4/Count_Bits_PM.c **** *
  42:.\Generated_Source\PSoC4/Count_Bits_PM.c **** *******************************************************************************/
  43:.\Generated_Source\PSoC4/Count_Bits_PM.c **** void Count_Bits_SaveConfig(void) 
  44:.\Generated_Source\PSoC4/Count_Bits_PM.c **** {
  27              		.loc 1 44 0
  28              		.cfi_startproc
  29 0000 80B5     		push	{r7, lr}
  30              		.cfi_def_cfa_offset 8
  31              		.cfi_offset 7, -8
  32              		.cfi_offset 14, -4
  33 0002 00AF     		add	r7, sp, #0
  34              		.cfi_def_cfa_register 7
  45:.\Generated_Source\PSoC4/Count_Bits_PM.c ****     Count_Bits_backup.count = Count_Bits_COUNT_REG;
  35              		.loc 1 45 0
  36 0004 034B     		ldr	r3, .L2
  37 0006 1B78     		ldrb	r3, [r3]
  38 0008 DAB2     		uxtb	r2, r3
  39 000a 034B     		ldr	r3, .L2+4
  40 000c 5A70     		strb	r2, [r3, #1]
  46:.\Generated_Source\PSoC4/Count_Bits_PM.c **** }
  41              		.loc 1 46 0
  42 000e BD46     		mov	sp, r7
  43              		@ sp needed
  44 0010 80BD     		pop	{r7, pc}
  45              	.L3:
  46 0012 C046     		.align	2
  47              	.L2:
  48 0014 72000F40 		.word	1074724978
  49 0018 00000000 		.word	Count_Bits_backup
  50              		.cfi_endproc
  51              	.LFE0:
  52              		.size	Count_Bits_SaveConfig, .-Count_Bits_SaveConfig
  53              		.section	.text.Count_Bits_Sleep,"ax",%progbits
  54              		.align	2
  55              		.global	Count_Bits_Sleep
  56              		.code	16
  57              		.thumb_func
  58              		.type	Count_Bits_Sleep, %function
  59              	Count_Bits_Sleep:
  60              	.LFB1:
  47:.\Generated_Source\PSoC4/Count_Bits_PM.c **** 
  48:.\Generated_Source\PSoC4/Count_Bits_PM.c **** 
  49:.\Generated_Source\PSoC4/Count_Bits_PM.c **** /*******************************************************************************
  50:.\Generated_Source\PSoC4/Count_Bits_PM.c **** * Function Name: Count_Bits_Sleep
  51:.\Generated_Source\PSoC4/Count_Bits_PM.c **** ********************************************************************************
  52:.\Generated_Source\PSoC4/Count_Bits_PM.c **** *
  53:.\Generated_Source\PSoC4/Count_Bits_PM.c **** * Summary:
  54:.\Generated_Source\PSoC4/Count_Bits_PM.c **** *  This is the preferred API to prepare the component for low power mode
ARM GAS  C:\Users\En\AppData\Local\Temp\cckBz7PA.s 			page 3


  55:.\Generated_Source\PSoC4/Count_Bits_PM.c **** *  operation. The Count7_Sleep() API saves the current component state using
  56:.\Generated_Source\PSoC4/Count_Bits_PM.c **** *  Count7_SaveConfig() and disables the counter.
  57:.\Generated_Source\PSoC4/Count_Bits_PM.c **** *
  58:.\Generated_Source\PSoC4/Count_Bits_PM.c **** * Parameters:
  59:.\Generated_Source\PSoC4/Count_Bits_PM.c **** *  None
  60:.\Generated_Source\PSoC4/Count_Bits_PM.c **** *
  61:.\Generated_Source\PSoC4/Count_Bits_PM.c **** * Return:
  62:.\Generated_Source\PSoC4/Count_Bits_PM.c **** *  None
  63:.\Generated_Source\PSoC4/Count_Bits_PM.c **** *
  64:.\Generated_Source\PSoC4/Count_Bits_PM.c **** *******************************************************************************/
  65:.\Generated_Source\PSoC4/Count_Bits_PM.c **** void Count_Bits_Sleep(void) 
  66:.\Generated_Source\PSoC4/Count_Bits_PM.c **** {
  61              		.loc 1 66 0
  62              		.cfi_startproc
  63 0000 80B5     		push	{r7, lr}
  64              		.cfi_def_cfa_offset 8
  65              		.cfi_offset 7, -8
  66              		.cfi_offset 14, -4
  67 0002 00AF     		add	r7, sp, #0
  68              		.cfi_def_cfa_register 7
  67:.\Generated_Source\PSoC4/Count_Bits_PM.c ****     if(0u != (Count_Bits_AUX_CONTROL_REG & Count_Bits_COUNTER_START))
  69              		.loc 1 67 0
  70 0004 094B     		ldr	r3, .L7
  71 0006 1B78     		ldrb	r3, [r3]
  72 0008 DBB2     		uxtb	r3, r3
  73 000a 1A1C     		mov	r2, r3
  74 000c 2023     		mov	r3, #32
  75 000e 1340     		and	r3, r2
  76 0010 05D0     		beq	.L5
  68:.\Generated_Source\PSoC4/Count_Bits_PM.c ****     {
  69:.\Generated_Source\PSoC4/Count_Bits_PM.c ****         Count_Bits_backup.enableState = 1u;
  77              		.loc 1 69 0
  78 0012 074B     		ldr	r3, .L7+4
  79 0014 0122     		mov	r2, #1
  80 0016 1A70     		strb	r2, [r3]
  70:.\Generated_Source\PSoC4/Count_Bits_PM.c ****         Count_Bits_Stop();
  81              		.loc 1 70 0
  82 0018 FFF7FEFF 		bl	Count_Bits_Stop
  83 001c 02E0     		b	.L6
  84              	.L5:
  71:.\Generated_Source\PSoC4/Count_Bits_PM.c ****     }
  72:.\Generated_Source\PSoC4/Count_Bits_PM.c ****     else
  73:.\Generated_Source\PSoC4/Count_Bits_PM.c ****     {
  74:.\Generated_Source\PSoC4/Count_Bits_PM.c ****         Count_Bits_backup.enableState = 0u;
  85              		.loc 1 74 0
  86 001e 044B     		ldr	r3, .L7+4
  87 0020 0022     		mov	r2, #0
  88 0022 1A70     		strb	r2, [r3]
  89              	.L6:
  75:.\Generated_Source\PSoC4/Count_Bits_PM.c ****     }
  76:.\Generated_Source\PSoC4/Count_Bits_PM.c **** 
  77:.\Generated_Source\PSoC4/Count_Bits_PM.c ****     Count_Bits_SaveConfig();
  90              		.loc 1 77 0
  91 0024 FFF7FEFF 		bl	Count_Bits_SaveConfig
  78:.\Generated_Source\PSoC4/Count_Bits_PM.c **** }
  92              		.loc 1 78 0
  93 0028 BD46     		mov	sp, r7
ARM GAS  C:\Users\En\AppData\Local\Temp\cckBz7PA.s 			page 4


  94              		@ sp needed
  95 002a 80BD     		pop	{r7, pc}
  96              	.L8:
  97              		.align	2
  98              	.L7:
  99 002c 92000F40 		.word	1074725010
 100 0030 00000000 		.word	Count_Bits_backup
 101              		.cfi_endproc
 102              	.LFE1:
 103              		.size	Count_Bits_Sleep, .-Count_Bits_Sleep
 104              		.section	.text.Count_Bits_RestoreConfig,"ax",%progbits
 105              		.align	2
 106              		.global	Count_Bits_RestoreConfig
 107              		.code	16
 108              		.thumb_func
 109              		.type	Count_Bits_RestoreConfig, %function
 110              	Count_Bits_RestoreConfig:
 111              	.LFB2:
  79:.\Generated_Source\PSoC4/Count_Bits_PM.c **** 
  80:.\Generated_Source\PSoC4/Count_Bits_PM.c **** 
  81:.\Generated_Source\PSoC4/Count_Bits_PM.c **** /*******************************************************************************
  82:.\Generated_Source\PSoC4/Count_Bits_PM.c **** * Function Name: Count_Bits_RestoreConfig
  83:.\Generated_Source\PSoC4/Count_Bits_PM.c **** ********************************************************************************
  84:.\Generated_Source\PSoC4/Count_Bits_PM.c **** *
  85:.\Generated_Source\PSoC4/Count_Bits_PM.c **** * Summary:
  86:.\Generated_Source\PSoC4/Count_Bits_PM.c **** *  This function restores the component configuration and non-retention
  87:.\Generated_Source\PSoC4/Count_Bits_PM.c **** *  registers. This function is called by the Count7_Wakeup() function.
  88:.\Generated_Source\PSoC4/Count_Bits_PM.c **** *
  89:.\Generated_Source\PSoC4/Count_Bits_PM.c **** * Parameters:
  90:.\Generated_Source\PSoC4/Count_Bits_PM.c **** *  None
  91:.\Generated_Source\PSoC4/Count_Bits_PM.c **** *
  92:.\Generated_Source\PSoC4/Count_Bits_PM.c **** * Return:
  93:.\Generated_Source\PSoC4/Count_Bits_PM.c **** *  None
  94:.\Generated_Source\PSoC4/Count_Bits_PM.c **** *
  95:.\Generated_Source\PSoC4/Count_Bits_PM.c **** * Global Variables:
  96:.\Generated_Source\PSoC4/Count_Bits_PM.c **** *  Count_Bits_backup - used to save component configuration and
  97:.\Generated_Source\PSoC4/Count_Bits_PM.c **** *  non-retention registers before exit sleep mode.
  98:.\Generated_Source\PSoC4/Count_Bits_PM.c **** *
  99:.\Generated_Source\PSoC4/Count_Bits_PM.c **** *******************************************************************************/
 100:.\Generated_Source\PSoC4/Count_Bits_PM.c **** void Count_Bits_RestoreConfig(void) 
 101:.\Generated_Source\PSoC4/Count_Bits_PM.c **** {
 112              		.loc 1 101 0
 113              		.cfi_startproc
 114 0000 80B5     		push	{r7, lr}
 115              		.cfi_def_cfa_offset 8
 116              		.cfi_offset 7, -8
 117              		.cfi_offset 14, -4
 118 0002 00AF     		add	r7, sp, #0
 119              		.cfi_def_cfa_register 7
 102:.\Generated_Source\PSoC4/Count_Bits_PM.c ****     Count_Bits_COUNT_REG = Count_Bits_backup.count;
 120              		.loc 1 102 0
 121 0004 024B     		ldr	r3, .L10
 122 0006 034A     		ldr	r2, .L10+4
 123 0008 5278     		ldrb	r2, [r2, #1]
 124 000a 1A70     		strb	r2, [r3]
 103:.\Generated_Source\PSoC4/Count_Bits_PM.c **** }
 125              		.loc 1 103 0
ARM GAS  C:\Users\En\AppData\Local\Temp\cckBz7PA.s 			page 5


 126 000c BD46     		mov	sp, r7
 127              		@ sp needed
 128 000e 80BD     		pop	{r7, pc}
 129              	.L11:
 130              		.align	2
 131              	.L10:
 132 0010 72000F40 		.word	1074724978
 133 0014 00000000 		.word	Count_Bits_backup
 134              		.cfi_endproc
 135              	.LFE2:
 136              		.size	Count_Bits_RestoreConfig, .-Count_Bits_RestoreConfig
 137              		.section	.text.Count_Bits_Wakeup,"ax",%progbits
 138              		.align	2
 139              		.global	Count_Bits_Wakeup
 140              		.code	16
 141              		.thumb_func
 142              		.type	Count_Bits_Wakeup, %function
 143              	Count_Bits_Wakeup:
 144              	.LFB3:
 104:.\Generated_Source\PSoC4/Count_Bits_PM.c **** 
 105:.\Generated_Source\PSoC4/Count_Bits_PM.c **** 
 106:.\Generated_Source\PSoC4/Count_Bits_PM.c **** /*******************************************************************************
 107:.\Generated_Source\PSoC4/Count_Bits_PM.c **** * Function Name: Count_Bits_Wakeup
 108:.\Generated_Source\PSoC4/Count_Bits_PM.c **** ********************************************************************************
 109:.\Generated_Source\PSoC4/Count_Bits_PM.c **** *
 110:.\Generated_Source\PSoC4/Count_Bits_PM.c **** * Summary:
 111:.\Generated_Source\PSoC4/Count_Bits_PM.c **** *  This is the preferred API to restore the component to the state when
 112:.\Generated_Source\PSoC4/Count_Bits_PM.c **** *  Count7_Sleep() was called. The Count7_Wakeup() function calls the
 113:.\Generated_Source\PSoC4/Count_Bits_PM.c **** *  Count7_RestoreConfig() function to restore the configuration.
 114:.\Generated_Source\PSoC4/Count_Bits_PM.c **** *
 115:.\Generated_Source\PSoC4/Count_Bits_PM.c **** * Parameters:
 116:.\Generated_Source\PSoC4/Count_Bits_PM.c **** *  None
 117:.\Generated_Source\PSoC4/Count_Bits_PM.c **** *
 118:.\Generated_Source\PSoC4/Count_Bits_PM.c **** * Return:
 119:.\Generated_Source\PSoC4/Count_Bits_PM.c **** *  None
 120:.\Generated_Source\PSoC4/Count_Bits_PM.c **** *
 121:.\Generated_Source\PSoC4/Count_Bits_PM.c **** *******************************************************************************/
 122:.\Generated_Source\PSoC4/Count_Bits_PM.c **** void Count_Bits_Wakeup(void) 
 123:.\Generated_Source\PSoC4/Count_Bits_PM.c **** {
 145              		.loc 1 123 0
 146              		.cfi_startproc
 147 0000 80B5     		push	{r7, lr}
 148              		.cfi_def_cfa_offset 8
 149              		.cfi_offset 7, -8
 150              		.cfi_offset 14, -4
 151 0002 00AF     		add	r7, sp, #0
 152              		.cfi_def_cfa_register 7
 124:.\Generated_Source\PSoC4/Count_Bits_PM.c ****     Count_Bits_RestoreConfig();
 153              		.loc 1 124 0
 154 0004 FFF7FEFF 		bl	Count_Bits_RestoreConfig
 125:.\Generated_Source\PSoC4/Count_Bits_PM.c **** 
 126:.\Generated_Source\PSoC4/Count_Bits_PM.c ****     /* Restore enable state */
 127:.\Generated_Source\PSoC4/Count_Bits_PM.c ****     if (Count_Bits_backup.enableState != 0u)
 155              		.loc 1 127 0
 156 0008 034B     		ldr	r3, .L14
 157 000a 1B78     		ldrb	r3, [r3]
 158 000c 002B     		cmp	r3, #0
ARM GAS  C:\Users\En\AppData\Local\Temp\cckBz7PA.s 			page 6


 159 000e 01D0     		beq	.L12
 128:.\Generated_Source\PSoC4/Count_Bits_PM.c ****     {
 129:.\Generated_Source\PSoC4/Count_Bits_PM.c ****         Count_Bits_Enable();
 160              		.loc 1 129 0
 161 0010 FFF7FEFF 		bl	Count_Bits_Enable
 162              	.L12:
 130:.\Generated_Source\PSoC4/Count_Bits_PM.c ****     }
 131:.\Generated_Source\PSoC4/Count_Bits_PM.c **** }
 163              		.loc 1 131 0
 164 0014 BD46     		mov	sp, r7
 165              		@ sp needed
 166 0016 80BD     		pop	{r7, pc}
 167              	.L15:
 168              		.align	2
 169              	.L14:
 170 0018 00000000 		.word	Count_Bits_backup
 171              		.cfi_endproc
 172              	.LFE3:
 173              		.size	Count_Bits_Wakeup, .-Count_Bits_Wakeup
 174              		.text
 175              	.Letext0:
 176              		.file 2 ".\\Generated_Source\\PSoC4\\cytypes.h"
 177              		.file 3 ".\\Generated_Source\\PSoC4\\Count_Bits.h"