ARM GAS  C:\Users\En\AppData\Local\Temp\ccK06tyt.s 			page 1


   1              		.cpu cortex-m0
   2              		.fpu softvfp
   3              		.eabi_attribute 20, 1
   4              		.eabi_attribute 21, 1
   5              		.eabi_attribute 23, 3
   6              		.eabi_attribute 24, 1
   7              		.eabi_attribute 25, 1
   8              		.eabi_attribute 26, 1
   9              		.eabi_attribute 30, 6
  10              		.eabi_attribute 34, 0
  11              		.eabi_attribute 18, 4
  12              		.code	16
  13              		.file	"Count_Bits.c"
  14              		.text
  15              	.Ltext0:
  16              		.cfi_sections	.debug_frame
  17              		.global	Count_Bits_initVar
  18              		.bss
  19              		.type	Count_Bits_initVar, %object
  20              		.size	Count_Bits_initVar, 1
  21              	Count_Bits_initVar:
  22 0000 00       		.space	1
  23              		.section	.text.Count_Bits_Init,"ax",%progbits
  24              		.align	2
  25              		.global	Count_Bits_Init
  26              		.code	16
  27              		.thumb_func
  28              		.type	Count_Bits_Init, %function
  29              	Count_Bits_Init:
  30              	.LFB0:
  31              		.file 1 ".\\Generated_Source\\PSoC4\\Count_Bits.c"
   1:.\Generated_Source\PSoC4/Count_Bits.c **** /*******************************************************************************
   2:.\Generated_Source\PSoC4/Count_Bits.c **** * File Name: Count_Bits.c
   3:.\Generated_Source\PSoC4/Count_Bits.c **** * Version 1.0
   4:.\Generated_Source\PSoC4/Count_Bits.c **** *
   5:.\Generated_Source\PSoC4/Count_Bits.c **** * Description:
   6:.\Generated_Source\PSoC4/Count_Bits.c **** *  This file provides source code for the Count7 component's API.
   7:.\Generated_Source\PSoC4/Count_Bits.c **** *
   8:.\Generated_Source\PSoC4/Count_Bits.c **** * Note:
   9:.\Generated_Source\PSoC4/Count_Bits.c **** *
  10:.\Generated_Source\PSoC4/Count_Bits.c **** ********************************************************************************
  11:.\Generated_Source\PSoC4/Count_Bits.c **** * Copyright 2013, Cypress Semiconductor Corporation.  All rights reserved.
  12:.\Generated_Source\PSoC4/Count_Bits.c **** * You may use this file only in accordance with the license, terms, conditions,
  13:.\Generated_Source\PSoC4/Count_Bits.c **** * disclaimers, and limitations in the end user license agreement accompanying
  14:.\Generated_Source\PSoC4/Count_Bits.c **** * the software package with which this file was provided.
  15:.\Generated_Source\PSoC4/Count_Bits.c **** *******************************************************************************/
  16:.\Generated_Source\PSoC4/Count_Bits.c **** 
  17:.\Generated_Source\PSoC4/Count_Bits.c **** #include "Count_Bits.h"
  18:.\Generated_Source\PSoC4/Count_Bits.c **** #include "CyLib.h"
  19:.\Generated_Source\PSoC4/Count_Bits.c **** 
  20:.\Generated_Source\PSoC4/Count_Bits.c **** 
  21:.\Generated_Source\PSoC4/Count_Bits.c **** uint8 Count_Bits_initVar = 0u;
  22:.\Generated_Source\PSoC4/Count_Bits.c **** 
  23:.\Generated_Source\PSoC4/Count_Bits.c **** 
  24:.\Generated_Source\PSoC4/Count_Bits.c **** /*******************************************************************************
  25:.\Generated_Source\PSoC4/Count_Bits.c **** * Function Name: Count_Bits_Init
  26:.\Generated_Source\PSoC4/Count_Bits.c **** ********************************************************************************
ARM GAS  C:\Users\En\AppData\Local\Temp\ccK06tyt.s 			page 2


  27:.\Generated_Source\PSoC4/Count_Bits.c **** *
  28:.\Generated_Source\PSoC4/Count_Bits.c **** * Summary:
  29:.\Generated_Source\PSoC4/Count_Bits.c **** *  Initializes or restores the component according to the parameter editor
  30:.\Generated_Source\PSoC4/Count_Bits.c **** *  settings.
  31:.\Generated_Source\PSoC4/Count_Bits.c **** *
  32:.\Generated_Source\PSoC4/Count_Bits.c **** * Parameters:
  33:.\Generated_Source\PSoC4/Count_Bits.c **** *  None
  34:.\Generated_Source\PSoC4/Count_Bits.c **** *
  35:.\Generated_Source\PSoC4/Count_Bits.c **** * Return:
  36:.\Generated_Source\PSoC4/Count_Bits.c **** *  None
  37:.\Generated_Source\PSoC4/Count_Bits.c **** *
  38:.\Generated_Source\PSoC4/Count_Bits.c **** * Theory:
  39:.\Generated_Source\PSoC4/Count_Bits.c **** *  It is not necessary to call Count7_Init() because the Count7_Start() API
  40:.\Generated_Source\PSoC4/Count_Bits.c **** *  calls this function and is the preferred method to begin component
  41:.\Generated_Source\PSoC4/Count_Bits.c **** *  operation.
  42:.\Generated_Source\PSoC4/Count_Bits.c **** *
  43:.\Generated_Source\PSoC4/Count_Bits.c **** *******************************************************************************/
  44:.\Generated_Source\PSoC4/Count_Bits.c **** void Count_Bits_Init(void) 
  45:.\Generated_Source\PSoC4/Count_Bits.c **** {
  32              		.loc 1 45 0
  33              		.cfi_startproc
  34 0000 80B5     		push	{r7, lr}
  35              		.cfi_def_cfa_offset 8
  36              		.cfi_offset 7, -8
  37              		.cfi_offset 14, -4
  38 0002 00AF     		add	r7, sp, #0
  39              		.cfi_def_cfa_register 7
  46:.\Generated_Source\PSoC4/Count_Bits.c ****     /* Set the initial period value from parameter editor */
  47:.\Generated_Source\PSoC4/Count_Bits.c ****     Count_Bits_PERIOD_REG = Count_Bits_INITIAL_PERIOD;
  40              		.loc 1 47 0
  41 0004 024B     		ldr	r3, .L2
  42 0006 0022     		mov	r2, #0
  43 0008 1A70     		strb	r2, [r3]
  48:.\Generated_Source\PSoC4/Count_Bits.c **** }
  44              		.loc 1 48 0
  45 000a BD46     		mov	sp, r7
  46              		@ sp needed
  47 000c 80BD     		pop	{r7, pc}
  48              	.L3:
  49 000e C046     		.align	2
  50              	.L2:
  51 0010 82000F40 		.word	1074724994
  52              		.cfi_endproc
  53              	.LFE0:
  54              		.size	Count_Bits_Init, .-Count_Bits_Init
  55              		.section	.text.Count_Bits_Enable,"ax",%progbits
  56              		.align	2
  57              		.global	Count_Bits_Enable
  58              		.code	16
  59              		.thumb_func
  60              		.type	Count_Bits_Enable, %function
  61              	Count_Bits_Enable:
  62              	.LFB1:
  49:.\Generated_Source\PSoC4/Count_Bits.c **** 
  50:.\Generated_Source\PSoC4/Count_Bits.c **** 
  51:.\Generated_Source\PSoC4/Count_Bits.c **** /*******************************************************************************
  52:.\Generated_Source\PSoC4/Count_Bits.c **** * Function Name: Count_Bits_Enable
ARM GAS  C:\Users\En\AppData\Local\Temp\ccK06tyt.s 			page 3


  53:.\Generated_Source\PSoC4/Count_Bits.c **** ********************************************************************************
  54:.\Generated_Source\PSoC4/Count_Bits.c **** *
  55:.\Generated_Source\PSoC4/Count_Bits.c **** * Summary:
  56:.\Generated_Source\PSoC4/Count_Bits.c **** *  Enables the software enable of the counter.
  57:.\Generated_Source\PSoC4/Count_Bits.c **** *
  58:.\Generated_Source\PSoC4/Count_Bits.c **** * Parameters:
  59:.\Generated_Source\PSoC4/Count_Bits.c **** *  None
  60:.\Generated_Source\PSoC4/Count_Bits.c **** *
  61:.\Generated_Source\PSoC4/Count_Bits.c **** * Return:
  62:.\Generated_Source\PSoC4/Count_Bits.c **** *  None
  63:.\Generated_Source\PSoC4/Count_Bits.c **** *
  64:.\Generated_Source\PSoC4/Count_Bits.c **** * Theory:
  65:.\Generated_Source\PSoC4/Count_Bits.c **** *  It is not necessary to call Count7_Enable() because the Count7_Start() API
  66:.\Generated_Source\PSoC4/Count_Bits.c **** *  calls this function, which is the preferred method to begin component
  67:.\Generated_Source\PSoC4/Count_Bits.c **** *  operation.
  68:.\Generated_Source\PSoC4/Count_Bits.c **** *  This API performs modification of auxiliary control register which is a
  69:.\Generated_Source\PSoC4/Count_Bits.c **** *  shared resource so it is required to disable interrupts until the
  70:.\Generated_Source\PSoC4/Count_Bits.c **** *  modification will complete.
  71:.\Generated_Source\PSoC4/Count_Bits.c **** *
  72:.\Generated_Source\PSoC4/Count_Bits.c **** *******************************************************************************/
  73:.\Generated_Source\PSoC4/Count_Bits.c **** void Count_Bits_Enable(void) 
  74:.\Generated_Source\PSoC4/Count_Bits.c **** {
  63              		.loc 1 74 0
  64              		.cfi_startproc
  65 0000 90B5     		push	{r4, r7, lr}
  66              		.cfi_def_cfa_offset 12
  67              		.cfi_offset 4, -12
  68              		.cfi_offset 7, -8
  69              		.cfi_offset 14, -4
  70 0002 83B0     		sub	sp, sp, #12
  71              		.cfi_def_cfa_offset 24
  72 0004 00AF     		add	r7, sp, #0
  73              		.cfi_def_cfa_register 7
  75:.\Generated_Source\PSoC4/Count_Bits.c ****     uint8 interruptState;
  76:.\Generated_Source\PSoC4/Count_Bits.c **** 
  77:.\Generated_Source\PSoC4/Count_Bits.c ****     interruptState = CyEnterCriticalSection();
  74              		.loc 1 77 0
  75 0006 FC1D     		add	r4, r7, #7
  76 0008 FFF7FEFF 		bl	CyEnterCriticalSection
  77 000c 031C     		mov	r3, r0
  78 000e 2370     		strb	r3, [r4]
  78:.\Generated_Source\PSoC4/Count_Bits.c ****     /* Set the counter start bit in auxiliary control. If routed enable
  79:.\Generated_Source\PSoC4/Count_Bits.c ****     * isn't used then this will immediately star the Count7 operation.
  80:.\Generated_Source\PSoC4/Count_Bits.c ****     */
  81:.\Generated_Source\PSoC4/Count_Bits.c ****     Count_Bits_AUX_CONTROL_REG |= Count_Bits_COUNTER_START;
  79              		.loc 1 81 0
  80 0010 074B     		ldr	r3, .L5
  81 0012 074A     		ldr	r2, .L5
  82 0014 1278     		ldrb	r2, [r2]
  83 0016 D2B2     		uxtb	r2, r2
  84 0018 2021     		mov	r1, #32
  85 001a 0A43     		orr	r2, r1
  86 001c D2B2     		uxtb	r2, r2
  87 001e 1A70     		strb	r2, [r3]
  82:.\Generated_Source\PSoC4/Count_Bits.c **** 
  83:.\Generated_Source\PSoC4/Count_Bits.c ****     CyExitCriticalSection(interruptState);
  88              		.loc 1 83 0
ARM GAS  C:\Users\En\AppData\Local\Temp\ccK06tyt.s 			page 4


  89 0020 FB1D     		add	r3, r7, #7
  90 0022 1B78     		ldrb	r3, [r3]
  91 0024 181C     		mov	r0, r3
  92 0026 FFF7FEFF 		bl	CyExitCriticalSection
  84:.\Generated_Source\PSoC4/Count_Bits.c **** }
  93              		.loc 1 84 0
  94 002a BD46     		mov	sp, r7
  95 002c 03B0     		add	sp, sp, #12
  96              		@ sp needed
  97 002e 90BD     		pop	{r4, r7, pc}
  98              	.L6:
  99              		.align	2
 100              	.L5:
 101 0030 92000F40 		.word	1074725010
 102              		.cfi_endproc
 103              	.LFE1:
 104              		.size	Count_Bits_Enable, .-Count_Bits_Enable
 105              		.section	.text.Count_Bits_Start,"ax",%progbits
 106              		.align	2
 107              		.global	Count_Bits_Start
 108              		.code	16
 109              		.thumb_func
 110              		.type	Count_Bits_Start, %function
 111              	Count_Bits_Start:
 112              	.LFB2:
  85:.\Generated_Source\PSoC4/Count_Bits.c **** 
  86:.\Generated_Source\PSoC4/Count_Bits.c **** 
  87:.\Generated_Source\PSoC4/Count_Bits.c **** /*******************************************************************************
  88:.\Generated_Source\PSoC4/Count_Bits.c **** * Function Name: Count_Bits_Start
  89:.\Generated_Source\PSoC4/Count_Bits.c **** ********************************************************************************
  90:.\Generated_Source\PSoC4/Count_Bits.c **** *
  91:.\Generated_Source\PSoC4/Count_Bits.c **** * Summary:
  92:.\Generated_Source\PSoC4/Count_Bits.c **** *  Performs all of the required initialization for the component and enables
  93:.\Generated_Source\PSoC4/Count_Bits.c **** *  the counter. The first time the routine is executed, the period is set as
  94:.\Generated_Source\PSoC4/Count_Bits.c **** *  configured in the customizer. When called to restart the counter following a
  95:.\Generated_Source\PSoC4/Count_Bits.c **** *  Count7_Stop() call, the current period value is retained.
  96:.\Generated_Source\PSoC4/Count_Bits.c **** *
  97:.\Generated_Source\PSoC4/Count_Bits.c **** * Parameters:
  98:.\Generated_Source\PSoC4/Count_Bits.c **** *  None.
  99:.\Generated_Source\PSoC4/Count_Bits.c **** *
 100:.\Generated_Source\PSoC4/Count_Bits.c **** * Global Variables:
 101:.\Generated_Source\PSoC4/Count_Bits.c **** *  Count_Bits_initVar - global variable.
 102:.\Generated_Source\PSoC4/Count_Bits.c **** *
 103:.\Generated_Source\PSoC4/Count_Bits.c **** * Return:
 104:.\Generated_Source\PSoC4/Count_Bits.c **** *  None.
 105:.\Generated_Source\PSoC4/Count_Bits.c **** *
 106:.\Generated_Source\PSoC4/Count_Bits.c **** *******************************************************************************/
 107:.\Generated_Source\PSoC4/Count_Bits.c **** void Count_Bits_Start(void) 
 108:.\Generated_Source\PSoC4/Count_Bits.c **** {
 113              		.loc 1 108 0
 114              		.cfi_startproc
 115 0000 80B5     		push	{r7, lr}
 116              		.cfi_def_cfa_offset 8
 117              		.cfi_offset 7, -8
 118              		.cfi_offset 14, -4
 119 0002 00AF     		add	r7, sp, #0
 120              		.cfi_def_cfa_register 7
ARM GAS  C:\Users\En\AppData\Local\Temp\ccK06tyt.s 			page 5


 109:.\Generated_Source\PSoC4/Count_Bits.c ****     /* If not initialized then perform initialization */
 110:.\Generated_Source\PSoC4/Count_Bits.c ****     if(Count_Bits_initVar == 0u)
 121              		.loc 1 110 0
 122 0004 064B     		ldr	r3, .L9
 123 0006 1B78     		ldrb	r3, [r3]
 124 0008 002B     		cmp	r3, #0
 125 000a 04D1     		bne	.L8
 111:.\Generated_Source\PSoC4/Count_Bits.c ****     {
 112:.\Generated_Source\PSoC4/Count_Bits.c ****         Count_Bits_Init();
 126              		.loc 1 112 0
 127 000c FFF7FEFF 		bl	Count_Bits_Init
 113:.\Generated_Source\PSoC4/Count_Bits.c ****         Count_Bits_initVar = 1u;
 128              		.loc 1 113 0
 129 0010 034B     		ldr	r3, .L9
 130 0012 0122     		mov	r2, #1
 131 0014 1A70     		strb	r2, [r3]
 132              	.L8:
 114:.\Generated_Source\PSoC4/Count_Bits.c ****     }
 115:.\Generated_Source\PSoC4/Count_Bits.c **** 
 116:.\Generated_Source\PSoC4/Count_Bits.c ****     /* Enable Count7 */
 117:.\Generated_Source\PSoC4/Count_Bits.c ****     Count_Bits_Enable();
 133              		.loc 1 117 0
 134 0016 FFF7FEFF 		bl	Count_Bits_Enable
 118:.\Generated_Source\PSoC4/Count_Bits.c **** }
 135              		.loc 1 118 0
 136 001a BD46     		mov	sp, r7
 137              		@ sp needed
 138 001c 80BD     		pop	{r7, pc}
 139              	.L10:
 140 001e C046     		.align	2
 141              	.L9:
 142 0020 00000000 		.word	Count_Bits_initVar
 143              		.cfi_endproc
 144              	.LFE2:
 145              		.size	Count_Bits_Start, .-Count_Bits_Start
 146              		.section	.text.Count_Bits_Stop,"ax",%progbits
 147              		.align	2
 148              		.global	Count_Bits_Stop
 149              		.code	16
 150              		.thumb_func
 151              		.type	Count_Bits_Stop, %function
 152              	Count_Bits_Stop:
 153              	.LFB3:
 119:.\Generated_Source\PSoC4/Count_Bits.c **** 
 120:.\Generated_Source\PSoC4/Count_Bits.c **** 
 121:.\Generated_Source\PSoC4/Count_Bits.c **** /*******************************************************************************
 122:.\Generated_Source\PSoC4/Count_Bits.c **** * Function Name: Count_Bits_Stop
 123:.\Generated_Source\PSoC4/Count_Bits.c **** ********************************************************************************
 124:.\Generated_Source\PSoC4/Count_Bits.c **** *
 125:.\Generated_Source\PSoC4/Count_Bits.c **** * Summary:
 126:.\Generated_Source\PSoC4/Count_Bits.c **** *  Disables the software enable of the counter.
 127:.\Generated_Source\PSoC4/Count_Bits.c **** *
 128:.\Generated_Source\PSoC4/Count_Bits.c **** * Parameters:
 129:.\Generated_Source\PSoC4/Count_Bits.c **** *  None
 130:.\Generated_Source\PSoC4/Count_Bits.c **** *
 131:.\Generated_Source\PSoC4/Count_Bits.c **** * Return:
 132:.\Generated_Source\PSoC4/Count_Bits.c **** *  None
ARM GAS  C:\Users\En\AppData\Local\Temp\ccK06tyt.s 			page 6


 133:.\Generated_Source\PSoC4/Count_Bits.c **** *
 134:.\Generated_Source\PSoC4/Count_Bits.c **** *******************************************************************************/
 135:.\Generated_Source\PSoC4/Count_Bits.c **** void Count_Bits_Stop(void) 
 136:.\Generated_Source\PSoC4/Count_Bits.c **** {
 154              		.loc 1 136 0
 155              		.cfi_startproc
 156 0000 90B5     		push	{r4, r7, lr}
 157              		.cfi_def_cfa_offset 12
 158              		.cfi_offset 4, -12
 159              		.cfi_offset 7, -8
 160              		.cfi_offset 14, -4
 161 0002 83B0     		sub	sp, sp, #12
 162              		.cfi_def_cfa_offset 24
 163 0004 00AF     		add	r7, sp, #0
 164              		.cfi_def_cfa_register 7
 137:.\Generated_Source\PSoC4/Count_Bits.c ****     uint8 interruptState;
 138:.\Generated_Source\PSoC4/Count_Bits.c **** 
 139:.\Generated_Source\PSoC4/Count_Bits.c ****     interruptState = CyEnterCriticalSection();
 165              		.loc 1 139 0
 166 0006 FC1D     		add	r4, r7, #7
 167 0008 FFF7FEFF 		bl	CyEnterCriticalSection
 168 000c 031C     		mov	r3, r0
 169 000e 2370     		strb	r3, [r4]
 140:.\Generated_Source\PSoC4/Count_Bits.c ****     /* Clear the counter start bit in auxiliary control. */
 141:.\Generated_Source\PSoC4/Count_Bits.c ****     Count_Bits_AUX_CONTROL_REG &= (uint8) ~((uint8) Count_Bits_COUNTER_START);
 170              		.loc 1 141 0
 171 0010 074B     		ldr	r3, .L12
 172 0012 074A     		ldr	r2, .L12
 173 0014 1278     		ldrb	r2, [r2]
 174 0016 D2B2     		uxtb	r2, r2
 175 0018 2021     		mov	r1, #32
 176 001a 8A43     		bic	r2, r1
 177 001c D2B2     		uxtb	r2, r2
 178 001e 1A70     		strb	r2, [r3]
 142:.\Generated_Source\PSoC4/Count_Bits.c **** 
 143:.\Generated_Source\PSoC4/Count_Bits.c ****     CyExitCriticalSection(interruptState);
 179              		.loc 1 143 0
 180 0020 FB1D     		add	r3, r7, #7
 181 0022 1B78     		ldrb	r3, [r3]
 182 0024 181C     		mov	r0, r3
 183 0026 FFF7FEFF 		bl	CyExitCriticalSection
 144:.\Generated_Source\PSoC4/Count_Bits.c **** }
 184              		.loc 1 144 0
 185 002a BD46     		mov	sp, r7
 186 002c 03B0     		add	sp, sp, #12
 187              		@ sp needed
 188 002e 90BD     		pop	{r4, r7, pc}
 189              	.L13:
 190              		.align	2
 191              	.L12:
 192 0030 92000F40 		.word	1074725010
 193              		.cfi_endproc
 194              	.LFE3:
 195              		.size	Count_Bits_Stop, .-Count_Bits_Stop
 196              		.section	.text.Count_Bits_WriteCounter,"ax",%progbits
 197              		.align	2
 198              		.global	Count_Bits_WriteCounter
ARM GAS  C:\Users\En\AppData\Local\Temp\ccK06tyt.s 			page 7


 199              		.code	16
 200              		.thumb_func
 201              		.type	Count_Bits_WriteCounter, %function
 202              	Count_Bits_WriteCounter:
 203              	.LFB4:
 145:.\Generated_Source\PSoC4/Count_Bits.c **** 
 146:.\Generated_Source\PSoC4/Count_Bits.c **** 
 147:.\Generated_Source\PSoC4/Count_Bits.c **** /*******************************************************************************
 148:.\Generated_Source\PSoC4/Count_Bits.c **** * Function Name: Count_Bits_WriteCounter
 149:.\Generated_Source\PSoC4/Count_Bits.c **** ********************************************************************************
 150:.\Generated_Source\PSoC4/Count_Bits.c **** *
 151:.\Generated_Source\PSoC4/Count_Bits.c **** * Summary:
 152:.\Generated_Source\PSoC4/Count_Bits.c **** *  This function writes the counter directly. The counter should be disabled
 153:.\Generated_Source\PSoC4/Count_Bits.c **** *  before calling this function.
 154:.\Generated_Source\PSoC4/Count_Bits.c **** *
 155:.\Generated_Source\PSoC4/Count_Bits.c **** * Parameters:
 156:.\Generated_Source\PSoC4/Count_Bits.c **** *  count - Value to be written to counter.
 157:.\Generated_Source\PSoC4/Count_Bits.c **** *
 158:.\Generated_Source\PSoC4/Count_Bits.c **** * Return:
 159:.\Generated_Source\PSoC4/Count_Bits.c **** *  None
 160:.\Generated_Source\PSoC4/Count_Bits.c **** *
 161:.\Generated_Source\PSoC4/Count_Bits.c **** *******************************************************************************/
 162:.\Generated_Source\PSoC4/Count_Bits.c **** void Count_Bits_WriteCounter(uint8 count) 
 163:.\Generated_Source\PSoC4/Count_Bits.c **** {
 204              		.loc 1 163 0
 205              		.cfi_startproc
 206 0000 80B5     		push	{r7, lr}
 207              		.cfi_def_cfa_offset 8
 208              		.cfi_offset 7, -8
 209              		.cfi_offset 14, -4
 210 0002 82B0     		sub	sp, sp, #8
 211              		.cfi_def_cfa_offset 16
 212 0004 00AF     		add	r7, sp, #0
 213              		.cfi_def_cfa_register 7
 214 0006 021C     		mov	r2, r0
 215 0008 FB1D     		add	r3, r7, #7
 216 000a 1A70     		strb	r2, [r3]
 164:.\Generated_Source\PSoC4/Count_Bits.c ****     Count_Bits_COUNT_REG = (count & Count_Bits_COUNT_7BIT_MASK);
 217              		.loc 1 164 0
 218 000c 044B     		ldr	r3, .L15
 219 000e FA1D     		add	r2, r7, #7
 220 0010 1178     		ldrb	r1, [r2]
 221 0012 7F22     		mov	r2, #127
 222 0014 0A40     		and	r2, r1
 223 0016 D2B2     		uxtb	r2, r2
 224 0018 1A70     		strb	r2, [r3]
 165:.\Generated_Source\PSoC4/Count_Bits.c **** }
 225              		.loc 1 165 0
 226 001a BD46     		mov	sp, r7
 227 001c 02B0     		add	sp, sp, #8
 228              		@ sp needed
 229 001e 80BD     		pop	{r7, pc}
 230              	.L16:
 231              		.align	2
 232              	.L15:
 233 0020 72000F40 		.word	1074724978
 234              		.cfi_endproc
ARM GAS  C:\Users\En\AppData\Local\Temp\ccK06tyt.s 			page 8


 235              	.LFE4:
 236              		.size	Count_Bits_WriteCounter, .-Count_Bits_WriteCounter
 237              		.section	.text.Count_Bits_ReadCounter,"ax",%progbits
 238              		.align	2
 239              		.global	Count_Bits_ReadCounter
 240              		.code	16
 241              		.thumb_func
 242              		.type	Count_Bits_ReadCounter, %function
 243              	Count_Bits_ReadCounter:
 244              	.LFB5:
 166:.\Generated_Source\PSoC4/Count_Bits.c **** 
 167:.\Generated_Source\PSoC4/Count_Bits.c **** 
 168:.\Generated_Source\PSoC4/Count_Bits.c **** /*******************************************************************************
 169:.\Generated_Source\PSoC4/Count_Bits.c **** * Function Name: Count_Bits_ReadCounter
 170:.\Generated_Source\PSoC4/Count_Bits.c **** ********************************************************************************
 171:.\Generated_Source\PSoC4/Count_Bits.c **** *
 172:.\Generated_Source\PSoC4/Count_Bits.c **** * Summary:
 173:.\Generated_Source\PSoC4/Count_Bits.c **** *  This function reads the counter value.
 174:.\Generated_Source\PSoC4/Count_Bits.c **** *
 175:.\Generated_Source\PSoC4/Count_Bits.c **** * Parameters:
 176:.\Generated_Source\PSoC4/Count_Bits.c **** *  None
 177:.\Generated_Source\PSoC4/Count_Bits.c **** *
 178:.\Generated_Source\PSoC4/Count_Bits.c **** * Return:
 179:.\Generated_Source\PSoC4/Count_Bits.c **** *  None
 180:.\Generated_Source\PSoC4/Count_Bits.c **** *
 181:.\Generated_Source\PSoC4/Count_Bits.c **** *******************************************************************************/
 182:.\Generated_Source\PSoC4/Count_Bits.c **** uint8 Count_Bits_ReadCounter(void) 
 183:.\Generated_Source\PSoC4/Count_Bits.c **** {
 245              		.loc 1 183 0
 246              		.cfi_startproc
 247 0000 80B5     		push	{r7, lr}
 248              		.cfi_def_cfa_offset 8
 249              		.cfi_offset 7, -8
 250              		.cfi_offset 14, -4
 251 0002 00AF     		add	r7, sp, #0
 252              		.cfi_def_cfa_register 7
 184:.\Generated_Source\PSoC4/Count_Bits.c ****     return(Count_Bits_COUNT_REG & Count_Bits_COUNT_7BIT_MASK);
 253              		.loc 1 184 0
 254 0004 044B     		ldr	r3, .L19
 255 0006 1B78     		ldrb	r3, [r3]
 256 0008 DAB2     		uxtb	r2, r3
 257 000a 7F23     		mov	r3, #127
 258 000c 1340     		and	r3, r2
 259 000e DBB2     		uxtb	r3, r3
 185:.\Generated_Source\PSoC4/Count_Bits.c **** }
 260              		.loc 1 185 0
 261 0010 181C     		mov	r0, r3
 262 0012 BD46     		mov	sp, r7
 263              		@ sp needed
 264 0014 80BD     		pop	{r7, pc}
 265              	.L20:
 266 0016 C046     		.align	2
 267              	.L19:
 268 0018 72000F40 		.word	1074724978
 269              		.cfi_endproc
 270              	.LFE5:
 271              		.size	Count_Bits_ReadCounter, .-Count_Bits_ReadCounter
ARM GAS  C:\Users\En\AppData\Local\Temp\ccK06tyt.s 			page 9


 272              		.section	.text.Count_Bits_WritePeriod,"ax",%progbits
 273              		.align	2
 274              		.global	Count_Bits_WritePeriod
 275              		.code	16
 276              		.thumb_func
 277              		.type	Count_Bits_WritePeriod, %function
 278              	Count_Bits_WritePeriod:
 279              	.LFB6:
 186:.\Generated_Source\PSoC4/Count_Bits.c **** 
 187:.\Generated_Source\PSoC4/Count_Bits.c **** 
 188:.\Generated_Source\PSoC4/Count_Bits.c **** /*******************************************************************************
 189:.\Generated_Source\PSoC4/Count_Bits.c **** * Function Name: Count_Bits_WritePeriod
 190:.\Generated_Source\PSoC4/Count_Bits.c **** ********************************************************************************
 191:.\Generated_Source\PSoC4/Count_Bits.c **** *
 192:.\Generated_Source\PSoC4/Count_Bits.c **** * Summary:
 193:.\Generated_Source\PSoC4/Count_Bits.c **** *  This function writes the period register. The actual period is one greater
 194:.\Generated_Source\PSoC4/Count_Bits.c **** *  than the value in the period register since the counting sequence starts
 195:.\Generated_Source\PSoC4/Count_Bits.c **** *  with the period register and counts down to 0 inclusive. The period of the
 196:.\Generated_Source\PSoC4/Count_Bits.c **** *  counter output does not change until the counter is reloaded following the
 197:.\Generated_Source\PSoC4/Count_Bits.c **** *  terminal count value of 0 or due to a hardware load signal.
 198:.\Generated_Source\PSoC4/Count_Bits.c **** *
 199:.\Generated_Source\PSoC4/Count_Bits.c **** * Parameters:
 200:.\Generated_Source\PSoC4/Count_Bits.c **** *  period - Period value to be written.
 201:.\Generated_Source\PSoC4/Count_Bits.c **** *
 202:.\Generated_Source\PSoC4/Count_Bits.c **** * Return:
 203:.\Generated_Source\PSoC4/Count_Bits.c **** *  None
 204:.\Generated_Source\PSoC4/Count_Bits.c **** *
 205:.\Generated_Source\PSoC4/Count_Bits.c **** *******************************************************************************/
 206:.\Generated_Source\PSoC4/Count_Bits.c **** void Count_Bits_WritePeriod(uint8 period) 
 207:.\Generated_Source\PSoC4/Count_Bits.c **** {
 280              		.loc 1 207 0
 281              		.cfi_startproc
 282 0000 80B5     		push	{r7, lr}
 283              		.cfi_def_cfa_offset 8
 284              		.cfi_offset 7, -8
 285              		.cfi_offset 14, -4
 286 0002 82B0     		sub	sp, sp, #8
 287              		.cfi_def_cfa_offset 16
 288 0004 00AF     		add	r7, sp, #0
 289              		.cfi_def_cfa_register 7
 290 0006 021C     		mov	r2, r0
 291 0008 FB1D     		add	r3, r7, #7
 292 000a 1A70     		strb	r2, [r3]
 208:.\Generated_Source\PSoC4/Count_Bits.c ****     Count_Bits_PERIOD_REG = period;
 293              		.loc 1 208 0
 294 000c 034B     		ldr	r3, .L22
 295 000e FA1D     		add	r2, r7, #7
 296 0010 1278     		ldrb	r2, [r2]
 297 0012 1A70     		strb	r2, [r3]
 209:.\Generated_Source\PSoC4/Count_Bits.c **** }
 298              		.loc 1 209 0
 299 0014 BD46     		mov	sp, r7
 300 0016 02B0     		add	sp, sp, #8
 301              		@ sp needed
 302 0018 80BD     		pop	{r7, pc}
 303              	.L23:
 304 001a C046     		.align	2
ARM GAS  C:\Users\En\AppData\Local\Temp\ccK06tyt.s 			page 10


 305              	.L22:
 306 001c 82000F40 		.word	1074724994
 307              		.cfi_endproc
 308              	.LFE6:
 309              		.size	Count_Bits_WritePeriod, .-Count_Bits_WritePeriod
 310              		.section	.text.Count_Bits_ReadPeriod,"ax",%progbits
 311              		.align	2
 312              		.global	Count_Bits_ReadPeriod
 313              		.code	16
 314              		.thumb_func
 315              		.type	Count_Bits_ReadPeriod, %function
 316              	Count_Bits_ReadPeriod:
 317              	.LFB7:
 210:.\Generated_Source\PSoC4/Count_Bits.c **** 
 211:.\Generated_Source\PSoC4/Count_Bits.c **** 
 212:.\Generated_Source\PSoC4/Count_Bits.c **** /*******************************************************************************
 213:.\Generated_Source\PSoC4/Count_Bits.c **** * Function Name: Count_Bits_ReadPeriod
 214:.\Generated_Source\PSoC4/Count_Bits.c **** ********************************************************************************
 215:.\Generated_Source\PSoC4/Count_Bits.c **** *
 216:.\Generated_Source\PSoC4/Count_Bits.c **** * Summary:
 217:.\Generated_Source\PSoC4/Count_Bits.c **** *  This function reads the period register.
 218:.\Generated_Source\PSoC4/Count_Bits.c **** *
 219:.\Generated_Source\PSoC4/Count_Bits.c **** * Parameters:
 220:.\Generated_Source\PSoC4/Count_Bits.c **** *  None
 221:.\Generated_Source\PSoC4/Count_Bits.c **** *
 222:.\Generated_Source\PSoC4/Count_Bits.c **** * Return:
 223:.\Generated_Source\PSoC4/Count_Bits.c **** *  uint8 - Current period value.
 224:.\Generated_Source\PSoC4/Count_Bits.c **** *
 225:.\Generated_Source\PSoC4/Count_Bits.c **** *******************************************************************************/
 226:.\Generated_Source\PSoC4/Count_Bits.c **** uint8 Count_Bits_ReadPeriod(void) 
 227:.\Generated_Source\PSoC4/Count_Bits.c **** {
 318              		.loc 1 227 0
 319              		.cfi_startproc
 320 0000 80B5     		push	{r7, lr}
 321              		.cfi_def_cfa_offset 8
 322              		.cfi_offset 7, -8
 323              		.cfi_offset 14, -4
 324 0002 00AF     		add	r7, sp, #0
 325              		.cfi_def_cfa_register 7
 228:.\Generated_Source\PSoC4/Count_Bits.c ****     return(Count_Bits_PERIOD_REG);
 326              		.loc 1 228 0
 327 0004 024B     		ldr	r3, .L26
 328 0006 1B78     		ldrb	r3, [r3]
 329 0008 DBB2     		uxtb	r3, r3
 229:.\Generated_Source\PSoC4/Count_Bits.c **** }
 330              		.loc 1 229 0
 331 000a 181C     		mov	r0, r3
 332 000c BD46     		mov	sp, r7
 333              		@ sp needed
 334 000e 80BD     		pop	{r7, pc}
 335              	.L27:
 336              		.align	2
 337              	.L26:
 338 0010 82000F40 		.word	1074724994
 339              		.cfi_endproc
 340              	.LFE7:
 341              		.size	Count_Bits_ReadPeriod, .-Count_Bits_ReadPeriod
ARM GAS  C:\Users\En\AppData\Local\Temp\ccK06tyt.s 			page 11


 342              		.text
 343              	.Letext0:
 344              		.file 2 ".\\Generated_Source\\PSoC4\\cytypes.h"