ARM GAS  C:\Users\En\AppData\Local\Temp\cc0PK8Fj.s 			page 1


   1              		.cpu cortex-m0
   2              		.fpu softvfp
   3              		.eabi_attribute 20, 1
   4              		.eabi_attribute 21, 1
   5              		.eabi_attribute 23, 3
   6              		.eabi_attribute 24, 1
   7              		.eabi_attribute 25, 1
   8              		.eabi_attribute 26, 1
   9              		.eabi_attribute 30, 6
  10              		.eabi_attribute 34, 0
  11              		.eabi_attribute 18, 4
  12              		.code	16
  13              		.file	"main.c"
  14              		.text
  15              	.Ltext0:
  16              		.cfi_sections	.debug_frame
  17              		.comm	rfid_data_u16,10,4
  18              		.global	idx
  19              		.bss
  20              		.type	idx, %object
  21              		.size	idx, 1
  22              	idx:
  23 0000 00       		.space	1
  24              		.global	i
  25              		.type	i, %object
  26              		.size	i, 1
  27              	i:
  28 0001 00       		.space	1
  29              		.global	rfid_data_received
  30              		.type	rfid_data_received, %object
  31              		.size	rfid_data_received, 1
  32              	rfid_data_received:
  33 0002 00       		.space	1
  34              		.global	temp
  35              		.type	temp, %object
  36              		.size	temp, 1
  37              	temp:
  38 0003 00       		.space	1
  39              		.section	.text.ResetISR_Handler,"ax",%progbits
  40              		.align	2
  41              		.global	ResetISR_Handler
  42              		.code	16
  43              		.thumb_func
  44              		.type	ResetISR_Handler, %function
  45              	ResetISR_Handler:
  46              	.LFB33:
  47              		.file 1 ".\\main.c"
   1:.\main.c      **** /******************************************************************************
   2:.\main.c      **** * Project Name		: Bootloadable Blinking LED
   3:.\main.c      **** * File Name			: main.c
   4:.\main.c      **** * Version 			: 1.0
   5:.\main.c      **** * Device Used		: CY8C4245AXI-483
   6:.\main.c      **** * Software Used		: PSoC Creator 3.1
   7:.\main.c      **** * Compiler    		: ARMGCC 4.8.4, ARM RVDS Generic, ARM MDK Generic
   8:.\main.c      **** * Related Hardware	: CY8CKIT-049-42xx PSoC 4 Prototyping Kit 
   9:.\main.c      **** *
  10:.\main.c      **** ********************************************************************************
ARM GAS  C:\Users\En\AppData\Local\Temp\cc0PK8Fj.s 			page 2


  11:.\main.c      **** * Copyright (2015), Cypress Semiconductor Corporation. All Rights Reserved.
  12:.\main.c      **** ********************************************************************************
  13:.\main.c      **** * This software is owned by Cypress Semiconductor Corporation (Cypress)
  14:.\main.c      **** * and is protected by and subject to worldwide patent protection (United
  15:.\main.c      **** * States and foreign), United States copyright laws and international treaty
  16:.\main.c      **** * provisions. Cypress hereby grants to licensee a personal, non-exclusive,
  17:.\main.c      **** * non-transferable license to copy, use, modify, create derivative works of,
  18:.\main.c      **** * and compile the Cypress Source Code and derivative works for the sole
  19:.\main.c      **** * purpose of creating custom software in support of licensee product to be
  20:.\main.c      **** * used only in conjunction with a Cypress integrated circuit as specified in
  21:.\main.c      **** * the applicable agreement. Any reproduction, modification, translation,
  22:.\main.c      **** * compilation, or representation of this software except as specified above 
  23:.\main.c      **** * is prohibited without the express written permission of Cypress.
  24:.\main.c      **** *
  25:.\main.c      **** * Disclaimer: CYPRESS MAKES NO WARRANTY OF ANY KIND, EXPRESS OR IMPLIED, WITH 
  26:.\main.c      **** * REGARD TO THIS MATERIAL, INCLUDING, BUT NOT LIMITED TO, THE IMPLIED 
  27:.\main.c      **** * WARRANTIES OF MERCHANTABILITY AND FITNESS FOR A PARTICULAR PURPOSE.
  28:.\main.c      **** * Cypress reserves the right to make changes without further notice to the 
  29:.\main.c      **** * materials described herein. Cypress does not assume any liability arising out 
  30:.\main.c      **** * of the application or use of any product or circuit described herein. Cypress 
  31:.\main.c      **** * does not authorize its products for use as critical components in life-support 
  32:.\main.c      **** * systems where a malfunction or failure may reasonably be expected to result in 
  33:.\main.c      **** * significant injury to the user. The inclusion of Cypress' product in a life-
  34:.\main.c      **** * support systems application implies that the manufacturer assumes all risk of 
  35:.\main.c      **** * such use and in doing so indemnifies Cypress against all charges. 
  36:.\main.c      **** *
  37:.\main.c      **** * Use of this Software may be limited by and subject to the applicable Cypress
  38:.\main.c      **** * software license agreement. 
  39:.\main.c      **** *******************************************************************************/
  40:.\main.c      **** 
  41:.\main.c      **** /******************************************************************************
  42:.\main.c      **** *                           THEORY OF OPERATION
  43:.\main.c      **** * This is a blinking LED project. A PWM component drives the pin to blink the 
  44:.\main.c      **** * LED at regular intervals. This project contains a bootloadable component so 
  45:.\main.c      **** * that it can be bootloaded into PSoC 4 which has a bootloader already programmed 
  46:.\main.c      **** * into it.
  47:.\main.c      **** * Default UART Port Configuration for bootloading the PSoC 4 in CY8CKIT-049-42xx
  48:.\main.c      **** * Baud Rate : 115200 bps
  49:.\main.c      **** * Data Bits : 8
  50:.\main.c      **** * Stop Bits : 1
  51:.\main.c      **** * Parity    : None
  52:.\main.c      **** ******************************************************************************/
  53:.\main.c      **** #include <project.h>
  54:.\main.c      **** #include <UART_tx.h>
  55:.\main.c      **** 
  56:.\main.c      **** 
  57:.\main.c      **** uint16 rfid_data_u16[5];
  58:.\main.c      **** uint8 idx = 0;
  59:.\main.c      **** uint8 i = 0;
  60:.\main.c      **** uint8 rfid_data_received = 0; // False
  61:.\main.c      **** uint8 temp = 0;
  62:.\main.c      **** /* Prototype the ISR Handler */
  63:.\main.c      **** CY_ISR_PROTO( ResetISR_Handler );
  64:.\main.c      **** 
  65:.\main.c      **** /* Implementation of the ISR Handler */
  66:.\main.c      **** CY_ISR( ResetISR_Handler )
  67:.\main.c      **** {
ARM GAS  C:\Users\En\AppData\Local\Temp\cc0PK8Fj.s 			page 3


  48              		.loc 1 67 0
  49              		.cfi_startproc
  50 0000 80B5     		push	{r7, lr}
  51              		.cfi_def_cfa_offset 8
  52              		.cfi_offset 7, -8
  53              		.cfi_offset 14, -4
  54 0002 00AF     		add	r7, sp, #0
  55              		.cfi_def_cfa_register 7
  68:.\main.c      ****     /* Force BootLoader Restart */
  69:.\main.c      ****     Bootloadable_Load();
  56              		.loc 1 69 0
  57 0004 FFF7FEFF 		bl	Bootloadable_Load
  70:.\main.c      **** }
  58              		.loc 1 70 0
  59 0008 BD46     		mov	sp, r7
  60              		@ sp needed
  61 000a 80BD     		pop	{r7, pc}
  62              		.cfi_endproc
  63              	.LFE33:
  64              		.size	ResetISR_Handler, .-ResetISR_Handler
  65              		.section	.text.main,"ax",%progbits
  66              		.align	2
  67              		.global	main
  68              		.code	16
  69              		.thumb_func
  70              		.type	main, %function
  71              	main:
  72              	.LFB34:
  71:.\main.c      **** 
  72:.\main.c      **** int main()
  73:.\main.c      **** {
  73              		.loc 1 73 0
  74              		.cfi_startproc
  75 0000 80B5     		push	{r7, lr}
  76              		.cfi_def_cfa_offset 8
  77              		.cfi_offset 7, -8
  78              		.cfi_offset 14, -4
  79 0002 00AF     		add	r7, sp, #0
  80              		.cfi_def_cfa_register 7
  74:.\main.c      ****     /* Start the ResetTimer - only runs when SW_1 is pressed */
  75:.\main.c      ****     Reset_Timer_Start();
  81              		.loc 1 75 0
  82 0004 FFF7FEFF 		bl	Reset_Timer_Start
  76:.\main.c      ****     /* Install the ISR handler and make sure none are pending */
  77:.\main.c      ****     Reset_ISR_ClearPending();
  83              		.loc 1 77 0
  84 0008 FFF7FEFF 		bl	Reset_ISR_ClearPending
  78:.\main.c      ****     Reset_ISR_StartEx( ResetISR_Handler );
  85              		.loc 1 78 0
  86 000c 2A4B     		ldr	r3, .L5
  87 000e 181C     		mov	r0, r3
  88 0010 FFF7FEFF 		bl	Reset_ISR_StartEx
  79:.\main.c      ****     
  80:.\main.c      ****     RFID_REG_Start();    
  89              		.loc 1 80 0
  90 0014 FFF7FEFF 		bl	RFID_REG_Start
  81:.\main.c      ****     Timer_1_Start();
ARM GAS  C:\Users\En\AppData\Local\Temp\cc0PK8Fj.s 			page 4


  91              		.loc 1 81 0
  92 0018 FFF7FEFF 		bl	Timer_1_Start
  82:.\main.c      ****     Count_Bits_Start();
  93              		.loc 1 82 0
  94 001c FFF7FEFF 		bl	Count_Bits_Start
  83:.\main.c      ****     Count_Bits_WriteCounter(8);
  95              		.loc 1 83 0
  96 0020 0820     		mov	r0, #8
  97 0022 FFF7FEFF 		bl	Count_Bits_WriteCounter
  84:.\main.c      ****     RFID_ISR_Start();
  98              		.loc 1 84 0
  99 0026 FFF7FEFF 		bl	RFID_ISR_Start
  85:.\main.c      ****     UART_Start();
 100              		.loc 1 85 0
 101 002a FFF7FEFF 		bl	UART_Start
  86:.\main.c      **** 	UART_SpiUartClearRxBuffer();
 102              		.loc 1 86 0
 103 002e FFF7FEFF 		bl	UART_SpiUartClearRxBuffer
  87:.\main.c      **** 	UART_SpiUartClearTxBuffer();    
 104              		.loc 1 87 0
 105 0032 FFF7FEFF 		bl	UART_SpiUartClearTxBuffer
  88:.\main.c      ****     
  89:.\main.c      ****     CyGlobalIntEnable; 
 106              		.loc 1 89 0
 107              	@ 89 ".\main.c" 1
 108 0036 62B6     		CPSIE   i
 109              	@ 0 "" 2
  90:.\main.c      ****     CyDelay(5000);
 110              		.loc 1 90 0
 111              		.code	16
 112 0038 204B     		ldr	r3, .L5+4
 113 003a 181C     		mov	r0, r3
 114 003c FFF7FEFF 		bl	CyDelay
  91:.\main.c      ****     
  92:.\main.c      ****     temp = 'S';
 115              		.loc 1 92 0
 116 0040 1F4B     		ldr	r3, .L5+8
 117 0042 5322     		mov	r2, #83
 118 0044 1A70     		strb	r2, [r3]
  93:.\main.c      ****     UART_SpiUartPutArray(&temp,1);
 119              		.loc 1 93 0
 120 0046 1E4B     		ldr	r3, .L5+8
 121 0048 181C     		mov	r0, r3
 122 004a 0121     		mov	r1, #1
 123 004c FFF7FEFF 		bl	UART_SpiUartPutArray
  94:.\main.c      ****     
  95:.\main.c      ****     i = 0;
 124              		.loc 1 95 0
 125 0050 1C4B     		ldr	r3, .L5+12
 126 0052 0022     		mov	r2, #0
 127 0054 1A70     		strb	r2, [r3]
 128              	.L4:
  96:.\main.c      ****     for(;;)
  97:.\main.c      ****     {       
  98:.\main.c      ****         if (rfid_data_received == 1)
 129              		.loc 1 98 0
 130 0056 1C4B     		ldr	r3, .L5+16
ARM GAS  C:\Users\En\AppData\Local\Temp\cc0PK8Fj.s 			page 5


 131 0058 1B78     		ldrb	r3, [r3]
 132 005a 012B     		cmp	r3, #1
 133 005c 2BD1     		bne	.L3
  99:.\main.c      ****         {
 100:.\main.c      ****             Count_Bits_WriteCounter(8);
 134              		.loc 1 100 0
 135 005e 0820     		mov	r0, #8
 136 0060 FFF7FEFF 		bl	Count_Bits_WriteCounter
 101:.\main.c      ****             temp =  RFID_REG_GetIntStatus();
 137              		.loc 1 101 0
 138 0064 FFF7FEFF 		bl	RFID_REG_GetIntStatus
 139 0068 031C     		mov	r3, r0
 140 006a 1A1C     		mov	r2, r3
 141 006c 144B     		ldr	r3, .L5+8
 142 006e 1A70     		strb	r2, [r3]
 102:.\main.c      **** //            UART_SpiUartPutArray(&temp,1);
 103:.\main.c      ****             
 104:.\main.c      ****             temp = (( rfid_data_u16[0] & 0x01FEu ) >> 1 ) ;       
 143              		.loc 1 104 0
 144 0070 164B     		ldr	r3, .L5+20
 145 0072 1B88     		ldrh	r3, [r3]
 146 0074 1A1C     		mov	r2, r3
 147 0076 FF23     		mov	r3, #255
 148 0078 5B00     		lsl	r3, r3, #1
 149 007a 1340     		and	r3, r2
 150 007c 5B08     		lsr	r3, r3, #1
 151 007e DAB2     		uxtb	r2, r3
 152 0080 0F4B     		ldr	r3, .L5+8
 153 0082 1A70     		strb	r2, [r3]
 105:.\main.c      ****             UART_SpiUartPutArray(&temp,1);
 154              		.loc 1 105 0
 155 0084 0E4B     		ldr	r3, .L5+8
 156 0086 181C     		mov	r0, r3
 157 0088 0121     		mov	r1, #1
 158 008a FFF7FEFF 		bl	UART_SpiUartPutArray
 106:.\main.c      ****                     
 107:.\main.c      ****             rfid_data_received = 0;
 159              		.loc 1 107 0
 160 008e 0E4B     		ldr	r3, .L5+16
 161 0090 0022     		mov	r2, #0
 162 0092 1A70     		strb	r2, [r3]
 108:.\main.c      ****             idx = 0;
 163              		.loc 1 108 0
 164 0094 0E4B     		ldr	r3, .L5+24
 165 0096 0022     		mov	r2, #0
 166 0098 1A70     		strb	r2, [r3]
 109:.\main.c      ****             
 110:.\main.c      ****             i = i+1;
 167              		.loc 1 110 0
 168 009a 0A4B     		ldr	r3, .L5+12
 169 009c 1B78     		ldrb	r3, [r3]
 170 009e 0133     		add	r3, r3, #1
 171 00a0 DAB2     		uxtb	r2, r3
 172 00a2 084B     		ldr	r3, .L5+12
 173 00a4 1A70     		strb	r2, [r3]
 111:.\main.c      ****             if (i > 10)
 174              		.loc 1 111 0
ARM GAS  C:\Users\En\AppData\Local\Temp\cc0PK8Fj.s 			page 6


 175 00a6 074B     		ldr	r3, .L5+12
 176 00a8 1B78     		ldrb	r3, [r3]
 177 00aa 0A2B     		cmp	r3, #10
 178 00ac 03D9     		bls	.L3
 112:.\main.c      ****             {
 113:.\main.c      ****                 CyDelay(100);
 179              		.loc 1 113 0
 180 00ae 6420     		mov	r0, #100
 181 00b0 FFF7FEFF 		bl	CyDelay
 114:.\main.c      ****             }
 115:.\main.c      ****         }
 116:.\main.c      ****     //CySysPmSleep();        
 117:.\main.c      ****     }
 182              		.loc 1 117 0
 183 00b4 CFE7     		b	.L4
 184              	.L3:
 185 00b6 CEE7     		b	.L4
 186              	.L6:
 187              		.align	2
 188              	.L5:
 189 00b8 00000000 		.word	ResetISR_Handler
 190 00bc 88130000 		.word	5000
 191 00c0 00000000 		.word	temp
 192 00c4 00000000 		.word	i
 193 00c8 00000000 		.word	rfid_data_received
 194 00cc 00000000 		.word	rfid_data_u16
 195 00d0 00000000 		.word	idx
 196              		.cfi_endproc
 197              	.LFE34:
 198              		.size	main, .-main
 199              		.text
 200              	.Letext0:
 201              		.file 2 "Generated_Source\\PSoC4/cytypes.h"