ARM GAS  C:\Users\En\AppData\Local\Temp\cczN6Kf7.s 			page 1


   1              		.cpu cortex-m0
   2              		.fpu softvfp
   3              		.eabi_attribute 20, 1
   4              		.eabi_attribute 21, 1
   5              		.eabi_attribute 23, 3
   6              		.eabi_attribute 24, 1
   7              		.eabi_attribute 25, 1
   8              		.eabi_attribute 26, 1
   9              		.eabi_attribute 30, 6
  10              		.eabi_attribute 34, 0
  11              		.eabi_attribute 18, 4
  12              		.code	16
  13              		.file	"RFID_REG.c"
  14              		.text
  15              	.Ltext0:
  16              		.cfi_sections	.debug_frame
  17              		.global	RFID_REG_initVar
  18              		.bss
  19              		.type	RFID_REG_initVar, %object
  20              		.size	RFID_REG_initVar, 1
  21              	RFID_REG_initVar:
  22 0000 00       		.space	1
  23              		.section	.text.RFID_REG_Start,"ax",%progbits
  24              		.align	2
  25              		.global	RFID_REG_Start
  26              		.code	16
  27              		.thumb_func
  28              		.type	RFID_REG_Start, %function
  29              	RFID_REG_Start:
  30              	.LFB0:
  31              		.file 1 ".\\Generated_Source\\PSoC4\\RFID_REG.c"
   1:.\Generated_Source\PSoC4/RFID_REG.c **** /*******************************************************************************
   2:.\Generated_Source\PSoC4/RFID_REG.c **** * File Name: RFID_REG.c
   3:.\Generated_Source\PSoC4/RFID_REG.c **** * Version 2.30
   4:.\Generated_Source\PSoC4/RFID_REG.c **** *
   5:.\Generated_Source\PSoC4/RFID_REG.c **** * Description:
   6:.\Generated_Source\PSoC4/RFID_REG.c **** *  This file provides the API source code for the Shift Register component.
   7:.\Generated_Source\PSoC4/RFID_REG.c **** *
   8:.\Generated_Source\PSoC4/RFID_REG.c **** * Note: none
   9:.\Generated_Source\PSoC4/RFID_REG.c **** *
  10:.\Generated_Source\PSoC4/RFID_REG.c **** ********************************************************************************
  11:.\Generated_Source\PSoC4/RFID_REG.c **** * Copyright 2008-2013, Cypress Semiconductor Corporation.  All rights reserved.
  12:.\Generated_Source\PSoC4/RFID_REG.c **** * You may use this file only in accordance with the license, terms, conditions,
  13:.\Generated_Source\PSoC4/RFID_REG.c **** * disclaimers, and limitations in the end user license agreement accompanying
  14:.\Generated_Source\PSoC4/RFID_REG.c **** * the software package with which this file was provided.
  15:.\Generated_Source\PSoC4/RFID_REG.c **** ********************************************************************************/
  16:.\Generated_Source\PSoC4/RFID_REG.c **** 
  17:.\Generated_Source\PSoC4/RFID_REG.c **** #include "RFID_REG.h"
  18:.\Generated_Source\PSoC4/RFID_REG.c **** 
  19:.\Generated_Source\PSoC4/RFID_REG.c **** uint8 RFID_REG_initVar = 0u;
  20:.\Generated_Source\PSoC4/RFID_REG.c **** 
  21:.\Generated_Source\PSoC4/RFID_REG.c **** 
  22:.\Generated_Source\PSoC4/RFID_REG.c **** /*******************************************************************************
  23:.\Generated_Source\PSoC4/RFID_REG.c **** * Function Name: RFID_REG_Start
  24:.\Generated_Source\PSoC4/RFID_REG.c **** ********************************************************************************
  25:.\Generated_Source\PSoC4/RFID_REG.c **** *
  26:.\Generated_Source\PSoC4/RFID_REG.c **** * Summary:
ARM GAS  C:\Users\En\AppData\Local\Temp\cczN6Kf7.s 			page 2


  27:.\Generated_Source\PSoC4/RFID_REG.c **** *  Starts the Shift Register.
  28:.\Generated_Source\PSoC4/RFID_REG.c **** *
  29:.\Generated_Source\PSoC4/RFID_REG.c **** * Parameters:
  30:.\Generated_Source\PSoC4/RFID_REG.c **** *  None.
  31:.\Generated_Source\PSoC4/RFID_REG.c **** *
  32:.\Generated_Source\PSoC4/RFID_REG.c **** * Return:
  33:.\Generated_Source\PSoC4/RFID_REG.c **** *  None.
  34:.\Generated_Source\PSoC4/RFID_REG.c **** *
  35:.\Generated_Source\PSoC4/RFID_REG.c **** * Global Variables:
  36:.\Generated_Source\PSoC4/RFID_REG.c **** *  RFID_REG_initVar - used to check initial configuration, modified on
  37:.\Generated_Source\PSoC4/RFID_REG.c **** *  first function call.
  38:.\Generated_Source\PSoC4/RFID_REG.c **** *
  39:.\Generated_Source\PSoC4/RFID_REG.c **** * Reentrant:
  40:.\Generated_Source\PSoC4/RFID_REG.c **** *  No.
  41:.\Generated_Source\PSoC4/RFID_REG.c **** *
  42:.\Generated_Source\PSoC4/RFID_REG.c **** *******************************************************************************/
  43:.\Generated_Source\PSoC4/RFID_REG.c **** void RFID_REG_Start(void) 
  44:.\Generated_Source\PSoC4/RFID_REG.c **** {
  32              		.loc 1 44 0
  33              		.cfi_startproc
  34 0000 80B5     		push	{r7, lr}
  35              		.cfi_def_cfa_offset 8
  36              		.cfi_offset 7, -8
  37              		.cfi_offset 14, -4
  38 0002 00AF     		add	r7, sp, #0
  39              		.cfi_def_cfa_register 7
  45:.\Generated_Source\PSoC4/RFID_REG.c ****     if(0u == RFID_REG_initVar)
  40              		.loc 1 45 0
  41 0004 064B     		ldr	r3, .L3
  42 0006 1B78     		ldrb	r3, [r3]
  43 0008 002B     		cmp	r3, #0
  44 000a 04D1     		bne	.L2
  46:.\Generated_Source\PSoC4/RFID_REG.c ****     {
  47:.\Generated_Source\PSoC4/RFID_REG.c ****         RFID_REG_Init();
  45              		.loc 1 47 0
  46 000c FFF7FEFF 		bl	RFID_REG_Init
  48:.\Generated_Source\PSoC4/RFID_REG.c ****         RFID_REG_initVar = 1u; /* Component initialized */
  47              		.loc 1 48 0
  48 0010 034B     		ldr	r3, .L3
  49 0012 0122     		mov	r2, #1
  50 0014 1A70     		strb	r2, [r3]
  51              	.L2:
  49:.\Generated_Source\PSoC4/RFID_REG.c ****     }
  50:.\Generated_Source\PSoC4/RFID_REG.c **** 
  51:.\Generated_Source\PSoC4/RFID_REG.c ****     RFID_REG_Enable();
  52              		.loc 1 51 0
  53 0016 FFF7FEFF 		bl	RFID_REG_Enable
  52:.\Generated_Source\PSoC4/RFID_REG.c **** }
  54              		.loc 1 52 0
  55 001a BD46     		mov	sp, r7
  56              		@ sp needed
  57 001c 80BD     		pop	{r7, pc}
  58              	.L4:
  59 001e C046     		.align	2
  60              	.L3:
  61 0020 00000000 		.word	RFID_REG_initVar
  62              		.cfi_endproc
ARM GAS  C:\Users\En\AppData\Local\Temp\cczN6Kf7.s 			page 3


  63              	.LFE0:
  64              		.size	RFID_REG_Start, .-RFID_REG_Start
  65              		.section	.text.RFID_REG_Enable,"ax",%progbits
  66              		.align	2
  67              		.global	RFID_REG_Enable
  68              		.code	16
  69              		.thumb_func
  70              		.type	RFID_REG_Enable, %function
  71              	RFID_REG_Enable:
  72              	.LFB1:
  53:.\Generated_Source\PSoC4/RFID_REG.c **** 
  54:.\Generated_Source\PSoC4/RFID_REG.c **** 
  55:.\Generated_Source\PSoC4/RFID_REG.c **** /*******************************************************************************
  56:.\Generated_Source\PSoC4/RFID_REG.c **** * Function Name: RFID_REG_Enable
  57:.\Generated_Source\PSoC4/RFID_REG.c **** ********************************************************************************
  58:.\Generated_Source\PSoC4/RFID_REG.c **** *
  59:.\Generated_Source\PSoC4/RFID_REG.c **** * Summary:
  60:.\Generated_Source\PSoC4/RFID_REG.c **** *  Enables the Shift Register.
  61:.\Generated_Source\PSoC4/RFID_REG.c **** *
  62:.\Generated_Source\PSoC4/RFID_REG.c **** * Parameters:
  63:.\Generated_Source\PSoC4/RFID_REG.c **** *  void.
  64:.\Generated_Source\PSoC4/RFID_REG.c **** *
  65:.\Generated_Source\PSoC4/RFID_REG.c **** * Return:
  66:.\Generated_Source\PSoC4/RFID_REG.c **** *  void.
  67:.\Generated_Source\PSoC4/RFID_REG.c **** *
  68:.\Generated_Source\PSoC4/RFID_REG.c **** *******************************************************************************/
  69:.\Generated_Source\PSoC4/RFID_REG.c **** void RFID_REG_Enable(void) 
  70:.\Generated_Source\PSoC4/RFID_REG.c **** {
  73              		.loc 1 70 0
  74              		.cfi_startproc
  75 0000 80B5     		push	{r7, lr}
  76              		.cfi_def_cfa_offset 8
  77              		.cfi_offset 7, -8
  78              		.cfi_offset 14, -4
  79 0002 00AF     		add	r7, sp, #0
  80              		.cfi_def_cfa_register 7
  71:.\Generated_Source\PSoC4/RFID_REG.c ****     /* Changing address in Datapath Control Store
  72:.\Generated_Source\PSoC4/RFID_REG.c ****        from NOP to component state machine commands space */
  73:.\Generated_Source\PSoC4/RFID_REG.c ****     RFID_REG_SR_CONTROL |= RFID_REG_CLK_EN;
  81              		.loc 1 73 0
  82 0004 054B     		ldr	r3, .L6
  83 0006 054A     		ldr	r2, .L6
  84 0008 1278     		ldrb	r2, [r2]
  85 000a D2B2     		uxtb	r2, r2
  86 000c 0121     		mov	r1, #1
  87 000e 0A43     		orr	r2, r1
  88 0010 D2B2     		uxtb	r2, r2
  89 0012 1A70     		strb	r2, [r3]
  74:.\Generated_Source\PSoC4/RFID_REG.c **** 
  75:.\Generated_Source\PSoC4/RFID_REG.c ****     RFID_REG_EnableInt();
  90              		.loc 1 75 0
  91 0014 FFF7FEFF 		bl	RFID_REG_EnableInt
  76:.\Generated_Source\PSoC4/RFID_REG.c **** }
  92              		.loc 1 76 0
  93 0018 BD46     		mov	sp, r7
  94              		@ sp needed
  95 001a 80BD     		pop	{r7, pc}
ARM GAS  C:\Users\En\AppData\Local\Temp\cczN6Kf7.s 			page 4


  96              	.L7:
  97              		.align	2
  98              	.L6:
  99 001c 70000F40 		.word	1074724976
 100              		.cfi_endproc
 101              	.LFE1:
 102              		.size	RFID_REG_Enable, .-RFID_REG_Enable
 103              		.section	.text.RFID_REG_Init,"ax",%progbits
 104              		.align	2
 105              		.global	RFID_REG_Init
 106              		.code	16
 107              		.thumb_func
 108              		.type	RFID_REG_Init, %function
 109              	RFID_REG_Init:
 110              	.LFB2:
  77:.\Generated_Source\PSoC4/RFID_REG.c **** 
  78:.\Generated_Source\PSoC4/RFID_REG.c **** 
  79:.\Generated_Source\PSoC4/RFID_REG.c **** /*******************************************************************************
  80:.\Generated_Source\PSoC4/RFID_REG.c **** * Function Name: RFID_REG_Init
  81:.\Generated_Source\PSoC4/RFID_REG.c **** ********************************************************************************
  82:.\Generated_Source\PSoC4/RFID_REG.c **** *
  83:.\Generated_Source\PSoC4/RFID_REG.c **** * Summary:
  84:.\Generated_Source\PSoC4/RFID_REG.c **** *  Initializes Tx and/or Rx interrupt sources with initial values.
  85:.\Generated_Source\PSoC4/RFID_REG.c **** *
  86:.\Generated_Source\PSoC4/RFID_REG.c **** * Parameters:
  87:.\Generated_Source\PSoC4/RFID_REG.c **** *  void.
  88:.\Generated_Source\PSoC4/RFID_REG.c **** *
  89:.\Generated_Source\PSoC4/RFID_REG.c **** * Return:
  90:.\Generated_Source\PSoC4/RFID_REG.c **** *  void.
  91:.\Generated_Source\PSoC4/RFID_REG.c **** *
  92:.\Generated_Source\PSoC4/RFID_REG.c **** *******************************************************************************/
  93:.\Generated_Source\PSoC4/RFID_REG.c **** void RFID_REG_Init(void) 
  94:.\Generated_Source\PSoC4/RFID_REG.c **** {
 111              		.loc 1 94 0
 112              		.cfi_startproc
 113 0000 80B5     		push	{r7, lr}
 114              		.cfi_def_cfa_offset 8
 115              		.cfi_offset 7, -8
 116              		.cfi_offset 14, -4
 117 0002 00AF     		add	r7, sp, #0
 118              		.cfi_def_cfa_register 7
  95:.\Generated_Source\PSoC4/RFID_REG.c ****     RFID_REG_SetIntMode(RFID_REG_INT_SRC);
 119              		.loc 1 95 0
 120 0004 0220     		mov	r0, #2
 121 0006 FFF7FEFF 		bl	RFID_REG_SetIntMode
  96:.\Generated_Source\PSoC4/RFID_REG.c **** }
 122              		.loc 1 96 0
 123 000a BD46     		mov	sp, r7
 124              		@ sp needed
 125 000c 80BD     		pop	{r7, pc}
 126              		.cfi_endproc
 127              	.LFE2:
 128              		.size	RFID_REG_Init, .-RFID_REG_Init
 129 000e C046     		.section	.text.RFID_REG_Stop,"ax",%progbits
 130              		.align	2
 131              		.global	RFID_REG_Stop
 132              		.code	16
ARM GAS  C:\Users\En\AppData\Local\Temp\cczN6Kf7.s 			page 5


 133              		.thumb_func
 134              		.type	RFID_REG_Stop, %function
 135              	RFID_REG_Stop:
 136              	.LFB3:
  97:.\Generated_Source\PSoC4/RFID_REG.c **** 
  98:.\Generated_Source\PSoC4/RFID_REG.c **** 
  99:.\Generated_Source\PSoC4/RFID_REG.c **** /*******************************************************************************
 100:.\Generated_Source\PSoC4/RFID_REG.c **** * Function Name: RFID_REG_Stop
 101:.\Generated_Source\PSoC4/RFID_REG.c **** ********************************************************************************
 102:.\Generated_Source\PSoC4/RFID_REG.c **** *
 103:.\Generated_Source\PSoC4/RFID_REG.c **** * Summary:
 104:.\Generated_Source\PSoC4/RFID_REG.c **** *  Disables the Shift Register
 105:.\Generated_Source\PSoC4/RFID_REG.c **** *
 106:.\Generated_Source\PSoC4/RFID_REG.c **** * Parameters:
 107:.\Generated_Source\PSoC4/RFID_REG.c **** *  None.
 108:.\Generated_Source\PSoC4/RFID_REG.c **** *
 109:.\Generated_Source\PSoC4/RFID_REG.c **** * Return:
 110:.\Generated_Source\PSoC4/RFID_REG.c **** *  None.
 111:.\Generated_Source\PSoC4/RFID_REG.c **** *
 112:.\Generated_Source\PSoC4/RFID_REG.c **** *******************************************************************************/
 113:.\Generated_Source\PSoC4/RFID_REG.c **** void RFID_REG_Stop(void) 
 114:.\Generated_Source\PSoC4/RFID_REG.c **** {
 137              		.loc 1 114 0
 138              		.cfi_startproc
 139 0000 80B5     		push	{r7, lr}
 140              		.cfi_def_cfa_offset 8
 141              		.cfi_offset 7, -8
 142              		.cfi_offset 14, -4
 143 0002 00AF     		add	r7, sp, #0
 144              		.cfi_def_cfa_register 7
 115:.\Generated_Source\PSoC4/RFID_REG.c ****     /*changing Datapath Control Store address to NOP space*/
 116:.\Generated_Source\PSoC4/RFID_REG.c ****     RFID_REG_SR_CONTROL &= ((uint8) ~RFID_REG_CLK_EN);
 145              		.loc 1 116 0
 146 0004 054B     		ldr	r3, .L10
 147 0006 054A     		ldr	r2, .L10
 148 0008 1278     		ldrb	r2, [r2]
 149 000a D2B2     		uxtb	r2, r2
 150 000c 0121     		mov	r1, #1
 151 000e 8A43     		bic	r2, r1
 152 0010 D2B2     		uxtb	r2, r2
 153 0012 1A70     		strb	r2, [r3]
 117:.\Generated_Source\PSoC4/RFID_REG.c ****     RFID_REG_DisableInt();
 154              		.loc 1 117 0
 155 0014 FFF7FEFF 		bl	RFID_REG_DisableInt
 118:.\Generated_Source\PSoC4/RFID_REG.c **** }
 156              		.loc 1 118 0
 157 0018 BD46     		mov	sp, r7
 158              		@ sp needed
 159 001a 80BD     		pop	{r7, pc}
 160              	.L11:
 161              		.align	2
 162              	.L10:
 163 001c 70000F40 		.word	1074724976
 164              		.cfi_endproc
 165              	.LFE3:
 166              		.size	RFID_REG_Stop, .-RFID_REG_Stop
 167              		.section	.text.RFID_REG_EnableInt,"ax",%progbits
ARM GAS  C:\Users\En\AppData\Local\Temp\cczN6Kf7.s 			page 6


 168              		.align	2
 169              		.global	RFID_REG_EnableInt
 170              		.code	16
 171              		.thumb_func
 172              		.type	RFID_REG_EnableInt, %function
 173              	RFID_REG_EnableInt:
 174              	.LFB4:
 119:.\Generated_Source\PSoC4/RFID_REG.c **** 
 120:.\Generated_Source\PSoC4/RFID_REG.c **** 
 121:.\Generated_Source\PSoC4/RFID_REG.c **** /*******************************************************************************
 122:.\Generated_Source\PSoC4/RFID_REG.c **** * Function Name: RFID_REG_EnableInt
 123:.\Generated_Source\PSoC4/RFID_REG.c **** ********************************************************************************
 124:.\Generated_Source\PSoC4/RFID_REG.c **** *
 125:.\Generated_Source\PSoC4/RFID_REG.c **** * Summary:
 126:.\Generated_Source\PSoC4/RFID_REG.c **** *  Enables the Shift Register interrupt.
 127:.\Generated_Source\PSoC4/RFID_REG.c **** *
 128:.\Generated_Source\PSoC4/RFID_REG.c **** * Parameters:
 129:.\Generated_Source\PSoC4/RFID_REG.c **** *  None.
 130:.\Generated_Source\PSoC4/RFID_REG.c **** *
 131:.\Generated_Source\PSoC4/RFID_REG.c **** * Return:
 132:.\Generated_Source\PSoC4/RFID_REG.c **** *  None.
 133:.\Generated_Source\PSoC4/RFID_REG.c **** *
 134:.\Generated_Source\PSoC4/RFID_REG.c **** *******************************************************************************/
 135:.\Generated_Source\PSoC4/RFID_REG.c **** void RFID_REG_EnableInt(void) 
 136:.\Generated_Source\PSoC4/RFID_REG.c **** {
 175              		.loc 1 136 0
 176              		.cfi_startproc
 177 0000 90B5     		push	{r4, r7, lr}
 178              		.cfi_def_cfa_offset 12
 179              		.cfi_offset 4, -12
 180              		.cfi_offset 7, -8
 181              		.cfi_offset 14, -4
 182 0002 83B0     		sub	sp, sp, #12
 183              		.cfi_def_cfa_offset 24
 184 0004 00AF     		add	r7, sp, #0
 185              		.cfi_def_cfa_register 7
 137:.\Generated_Source\PSoC4/RFID_REG.c ****     uint8 interruptState;
 138:.\Generated_Source\PSoC4/RFID_REG.c **** 
 139:.\Generated_Source\PSoC4/RFID_REG.c ****     interruptState = CyEnterCriticalSection();
 186              		.loc 1 139 0
 187 0006 FC1D     		add	r4, r7, #7
 188 0008 FFF7FEFF 		bl	CyEnterCriticalSection
 189 000c 031C     		mov	r3, r0
 190 000e 2370     		strb	r3, [r4]
 140:.\Generated_Source\PSoC4/RFID_REG.c ****     RFID_REG_SR_AUX_CONTROL |= RFID_REG_INTERRUPTS_ENABLE;
 191              		.loc 1 140 0
 192 0010 074B     		ldr	r3, .L13
 193 0012 074A     		ldr	r2, .L13
 194 0014 1278     		ldrb	r2, [r2]
 195 0016 D2B2     		uxtb	r2, r2
 196 0018 1021     		mov	r1, #16
 197 001a 0A43     		orr	r2, r1
 198 001c D2B2     		uxtb	r2, r2
 199 001e 1A70     		strb	r2, [r3]
 141:.\Generated_Source\PSoC4/RFID_REG.c ****     CyExitCriticalSection(interruptState);
 200              		.loc 1 141 0
 201 0020 FB1D     		add	r3, r7, #7
ARM GAS  C:\Users\En\AppData\Local\Temp\cczN6Kf7.s 			page 7


 202 0022 1B78     		ldrb	r3, [r3]
 203 0024 181C     		mov	r0, r3
 204 0026 FFF7FEFF 		bl	CyExitCriticalSection
 142:.\Generated_Source\PSoC4/RFID_REG.c **** }
 205              		.loc 1 142 0
 206 002a BD46     		mov	sp, r7
 207 002c 03B0     		add	sp, sp, #12
 208              		@ sp needed
 209 002e 90BD     		pop	{r4, r7, pc}
 210              	.L14:
 211              		.align	2
 212              	.L13:
 213 0030 91000F40 		.word	1074725009
 214              		.cfi_endproc
 215              	.LFE4:
 216              		.size	RFID_REG_EnableInt, .-RFID_REG_EnableInt
 217              		.section	.text.RFID_REG_DisableInt,"ax",%progbits
 218              		.align	2
 219              		.global	RFID_REG_DisableInt
 220              		.code	16
 221              		.thumb_func
 222              		.type	RFID_REG_DisableInt, %function
 223              	RFID_REG_DisableInt:
 224              	.LFB5:
 143:.\Generated_Source\PSoC4/RFID_REG.c **** 
 144:.\Generated_Source\PSoC4/RFID_REG.c **** 
 145:.\Generated_Source\PSoC4/RFID_REG.c **** /*******************************************************************************
 146:.\Generated_Source\PSoC4/RFID_REG.c **** * Function Name: RFID_REG_DisableInt
 147:.\Generated_Source\PSoC4/RFID_REG.c **** ********************************************************************************
 148:.\Generated_Source\PSoC4/RFID_REG.c **** *
 149:.\Generated_Source\PSoC4/RFID_REG.c **** * Summary:
 150:.\Generated_Source\PSoC4/RFID_REG.c **** *  Disables the Shift Register interrupt.
 151:.\Generated_Source\PSoC4/RFID_REG.c **** *
 152:.\Generated_Source\PSoC4/RFID_REG.c **** * Parameters:
 153:.\Generated_Source\PSoC4/RFID_REG.c **** *  None.
 154:.\Generated_Source\PSoC4/RFID_REG.c **** *
 155:.\Generated_Source\PSoC4/RFID_REG.c **** * Return:
 156:.\Generated_Source\PSoC4/RFID_REG.c **** *  None.
 157:.\Generated_Source\PSoC4/RFID_REG.c **** *
 158:.\Generated_Source\PSoC4/RFID_REG.c **** *******************************************************************************/
 159:.\Generated_Source\PSoC4/RFID_REG.c **** void RFID_REG_DisableInt(void) 
 160:.\Generated_Source\PSoC4/RFID_REG.c **** {
 225              		.loc 1 160 0
 226              		.cfi_startproc
 227 0000 90B5     		push	{r4, r7, lr}
 228              		.cfi_def_cfa_offset 12
 229              		.cfi_offset 4, -12
 230              		.cfi_offset 7, -8
 231              		.cfi_offset 14, -4
 232 0002 83B0     		sub	sp, sp, #12
 233              		.cfi_def_cfa_offset 24
 234 0004 00AF     		add	r7, sp, #0
 235              		.cfi_def_cfa_register 7
 161:.\Generated_Source\PSoC4/RFID_REG.c ****     uint8 interruptState;
 162:.\Generated_Source\PSoC4/RFID_REG.c **** 
 163:.\Generated_Source\PSoC4/RFID_REG.c ****     interruptState = CyEnterCriticalSection();
 236              		.loc 1 163 0
ARM GAS  C:\Users\En\AppData\Local\Temp\cczN6Kf7.s 			page 8


 237 0006 FC1D     		add	r4, r7, #7
 238 0008 FFF7FEFF 		bl	CyEnterCriticalSection
 239 000c 031C     		mov	r3, r0
 240 000e 2370     		strb	r3, [r4]
 164:.\Generated_Source\PSoC4/RFID_REG.c ****     RFID_REG_SR_AUX_CONTROL &= ((uint8) ~RFID_REG_INTERRUPTS_ENABLE);
 241              		.loc 1 164 0
 242 0010 074B     		ldr	r3, .L16
 243 0012 074A     		ldr	r2, .L16
 244 0014 1278     		ldrb	r2, [r2]
 245 0016 D2B2     		uxtb	r2, r2
 246 0018 1021     		mov	r1, #16
 247 001a 8A43     		bic	r2, r1
 248 001c D2B2     		uxtb	r2, r2
 249 001e 1A70     		strb	r2, [r3]
 165:.\Generated_Source\PSoC4/RFID_REG.c ****     CyExitCriticalSection(interruptState);
 250              		.loc 1 165 0
 251 0020 FB1D     		add	r3, r7, #7
 252 0022 1B78     		ldrb	r3, [r3]
 253 0024 181C     		mov	r0, r3
 254 0026 FFF7FEFF 		bl	CyExitCriticalSection
 166:.\Generated_Source\PSoC4/RFID_REG.c **** }
 255              		.loc 1 166 0
 256 002a BD46     		mov	sp, r7
 257 002c 03B0     		add	sp, sp, #12
 258              		@ sp needed
 259 002e 90BD     		pop	{r4, r7, pc}
 260              	.L17:
 261              		.align	2
 262              	.L16:
 263 0030 91000F40 		.word	1074725009
 264              		.cfi_endproc
 265              	.LFE5:
 266              		.size	RFID_REG_DisableInt, .-RFID_REG_DisableInt
 267              		.section	.text.RFID_REG_GetFIFOStatus,"ax",%progbits
 268              		.align	2
 269              		.global	RFID_REG_GetFIFOStatus
 270              		.code	16
 271              		.thumb_func
 272              		.type	RFID_REG_GetFIFOStatus, %function
 273              	RFID_REG_GetFIFOStatus:
 274              	.LFB6:
 167:.\Generated_Source\PSoC4/RFID_REG.c **** 
 168:.\Generated_Source\PSoC4/RFID_REG.c **** 
 169:.\Generated_Source\PSoC4/RFID_REG.c **** /*******************************************************************************
 170:.\Generated_Source\PSoC4/RFID_REG.c **** * Function Name: RFID_REG_GetFIFOStatus
 171:.\Generated_Source\PSoC4/RFID_REG.c **** ********************************************************************************
 172:.\Generated_Source\PSoC4/RFID_REG.c **** *
 173:.\Generated_Source\PSoC4/RFID_REG.c **** * Summary:
 174:.\Generated_Source\PSoC4/RFID_REG.c **** *  Returns current status of input or output FIFO.
 175:.\Generated_Source\PSoC4/RFID_REG.c **** *
 176:.\Generated_Source\PSoC4/RFID_REG.c **** * Parameters:
 177:.\Generated_Source\PSoC4/RFID_REG.c **** *  fifoId.
 178:.\Generated_Source\PSoC4/RFID_REG.c **** *
 179:.\Generated_Source\PSoC4/RFID_REG.c **** * Return:
 180:.\Generated_Source\PSoC4/RFID_REG.c **** *  FIFO status.
 181:.\Generated_Source\PSoC4/RFID_REG.c **** *
 182:.\Generated_Source\PSoC4/RFID_REG.c **** *******************************************************************************/
ARM GAS  C:\Users\En\AppData\Local\Temp\cczN6Kf7.s 			page 9


 183:.\Generated_Source\PSoC4/RFID_REG.c **** uint8 RFID_REG_GetFIFOStatus(uint8 fifoId) 
 184:.\Generated_Source\PSoC4/RFID_REG.c **** {
 275              		.loc 1 184 0
 276              		.cfi_startproc
 277 0000 80B5     		push	{r7, lr}
 278              		.cfi_def_cfa_offset 8
 279              		.cfi_offset 7, -8
 280              		.cfi_offset 14, -4
 281 0002 84B0     		sub	sp, sp, #16
 282              		.cfi_def_cfa_offset 24
 283 0004 00AF     		add	r7, sp, #0
 284              		.cfi_def_cfa_register 7
 285 0006 021C     		mov	r2, r0
 286 0008 FB1D     		add	r3, r7, #7
 287 000a 1A70     		strb	r2, [r3]
 185:.\Generated_Source\PSoC4/RFID_REG.c ****     uint8 result;
 186:.\Generated_Source\PSoC4/RFID_REG.c **** 
 187:.\Generated_Source\PSoC4/RFID_REG.c ****     result = RFID_REG_RET_FIFO_NOT_DEFINED;
 288              		.loc 1 187 0
 289 000c 3B1C     		mov	r3, r7
 290 000e 0F33     		add	r3, r3, #15
 291 0010 FE22     		mov	r2, #254
 292 0012 1A70     		strb	r2, [r3]
 188:.\Generated_Source\PSoC4/RFID_REG.c **** 
 189:.\Generated_Source\PSoC4/RFID_REG.c ****     #if(0u != RFID_REG_USE_INPUT_FIFO)
 190:.\Generated_Source\PSoC4/RFID_REG.c ****         if(RFID_REG_IN_FIFO == fifoId)
 191:.\Generated_Source\PSoC4/RFID_REG.c ****         {
 192:.\Generated_Source\PSoC4/RFID_REG.c ****             switch(RFID_REG_GET_IN_FIFO_STS)
 193:.\Generated_Source\PSoC4/RFID_REG.c ****             {
 194:.\Generated_Source\PSoC4/RFID_REG.c ****                 case RFID_REG_IN_FIFO_FULL :
 195:.\Generated_Source\PSoC4/RFID_REG.c ****                     result = RFID_REG_RET_FIFO_FULL;
 196:.\Generated_Source\PSoC4/RFID_REG.c ****                     break;
 197:.\Generated_Source\PSoC4/RFID_REG.c **** 
 198:.\Generated_Source\PSoC4/RFID_REG.c ****                 case RFID_REG_IN_FIFO_EMPTY :
 199:.\Generated_Source\PSoC4/RFID_REG.c ****                     result = RFID_REG_RET_FIFO_EMPTY;
 200:.\Generated_Source\PSoC4/RFID_REG.c ****                     break;
 201:.\Generated_Source\PSoC4/RFID_REG.c **** 
 202:.\Generated_Source\PSoC4/RFID_REG.c ****                 case RFID_REG_IN_FIFO_PARTIAL:
 203:.\Generated_Source\PSoC4/RFID_REG.c ****                     result = RFID_REG_RET_FIFO_PARTIAL;
 204:.\Generated_Source\PSoC4/RFID_REG.c ****                     break;
 205:.\Generated_Source\PSoC4/RFID_REG.c ****                     
 206:.\Generated_Source\PSoC4/RFID_REG.c ****                 default:
 207:.\Generated_Source\PSoC4/RFID_REG.c ****                     /* Initial result value, while 
 208:.\Generated_Source\PSoC4/RFID_REG.c ****                        IN_FIFO_EMPTY case is false 
 209:.\Generated_Source\PSoC4/RFID_REG.c ****                      */
 210:.\Generated_Source\PSoC4/RFID_REG.c ****                     result = RFID_REG_RET_FIFO_EMPTY;
 211:.\Generated_Source\PSoC4/RFID_REG.c ****                     break;
 212:.\Generated_Source\PSoC4/RFID_REG.c ****             }   
 213:.\Generated_Source\PSoC4/RFID_REG.c ****         }
 214:.\Generated_Source\PSoC4/RFID_REG.c ****     #endif /* (0u != RFID_REG_USE_INPUT_FIFO) */
 215:.\Generated_Source\PSoC4/RFID_REG.c **** 
 216:.\Generated_Source\PSoC4/RFID_REG.c ****     if(RFID_REG_OUT_FIFO == fifoId)
 293              		.loc 1 216 0
 294 0014 FB1D     		add	r3, r7, #7
 295 0016 1B78     		ldrb	r3, [r3]
 296 0018 022B     		cmp	r3, #2
 297 001a 20D1     		bne	.L19
ARM GAS  C:\Users\En\AppData\Local\Temp\cczN6Kf7.s 			page 10


 217:.\Generated_Source\PSoC4/RFID_REG.c ****     {
 218:.\Generated_Source\PSoC4/RFID_REG.c ****         switch(RFID_REG_GET_OUT_FIFO_STS)
 298              		.loc 1 218 0
 299 001c 134B     		ldr	r3, .L26
 300 001e 1B78     		ldrb	r3, [r3]
 301 0020 DBB2     		uxtb	r3, r3
 302 0022 1A1C     		mov	r2, r3
 303 0024 6023     		mov	r3, #96
 304 0026 1340     		and	r3, r2
 305 0028 5B09     		lsr	r3, r3, #5
 306 002a 012B     		cmp	r3, #1
 307 002c 03D0     		beq	.L21
 308 002e 07D3     		bcc	.L22
 309 0030 022B     		cmp	r3, #2
 310 0032 0AD0     		beq	.L23
 311 0034 0EE0     		b	.L25
 312              	.L21:
 219:.\Generated_Source\PSoC4/RFID_REG.c ****         {
 220:.\Generated_Source\PSoC4/RFID_REG.c ****             case RFID_REG_OUT_FIFO_FULL :
 221:.\Generated_Source\PSoC4/RFID_REG.c ****                 result = RFID_REG_RET_FIFO_FULL;
 313              		.loc 1 221 0
 314 0036 3B1C     		mov	r3, r7
 315 0038 0F33     		add	r3, r3, #15
 316 003a 0022     		mov	r2, #0
 317 003c 1A70     		strb	r2, [r3]
 222:.\Generated_Source\PSoC4/RFID_REG.c ****                 break;
 318              		.loc 1 222 0
 319 003e 0EE0     		b	.L19
 320              	.L22:
 223:.\Generated_Source\PSoC4/RFID_REG.c **** 
 224:.\Generated_Source\PSoC4/RFID_REG.c ****             case RFID_REG_OUT_FIFO_EMPTY :
 225:.\Generated_Source\PSoC4/RFID_REG.c ****                 result = RFID_REG_RET_FIFO_EMPTY;
 321              		.loc 1 225 0
 322 0040 3B1C     		mov	r3, r7
 323 0042 0F33     		add	r3, r3, #15
 324 0044 0222     		mov	r2, #2
 325 0046 1A70     		strb	r2, [r3]
 226:.\Generated_Source\PSoC4/RFID_REG.c ****                 break;
 326              		.loc 1 226 0
 327 0048 09E0     		b	.L19
 328              	.L23:
 227:.\Generated_Source\PSoC4/RFID_REG.c **** 
 228:.\Generated_Source\PSoC4/RFID_REG.c ****             case RFID_REG_OUT_FIFO_PARTIAL :
 229:.\Generated_Source\PSoC4/RFID_REG.c ****                 result = RFID_REG_RET_FIFO_PARTIAL;
 329              		.loc 1 229 0
 330 004a 3B1C     		mov	r3, r7
 331 004c 0F33     		add	r3, r3, #15
 332 004e 0122     		mov	r2, #1
 333 0050 1A70     		strb	r2, [r3]
 230:.\Generated_Source\PSoC4/RFID_REG.c ****                 break;
 334              		.loc 1 230 0
 335 0052 04E0     		b	.L19
 336              	.L25:
 231:.\Generated_Source\PSoC4/RFID_REG.c **** 
 232:.\Generated_Source\PSoC4/RFID_REG.c ****             default:
 233:.\Generated_Source\PSoC4/RFID_REG.c ****                 /* Initial result value, while 
 234:.\Generated_Source\PSoC4/RFID_REG.c ****                    OUT_FIFO_FULL case is false 
ARM GAS  C:\Users\En\AppData\Local\Temp\cczN6Kf7.s 			page 11


 235:.\Generated_Source\PSoC4/RFID_REG.c ****                  */
 236:.\Generated_Source\PSoC4/RFID_REG.c ****                 result = RFID_REG_RET_FIFO_FULL;
 337              		.loc 1 236 0
 338 0054 3B1C     		mov	r3, r7
 339 0056 0F33     		add	r3, r3, #15
 340 0058 0022     		mov	r2, #0
 341 005a 1A70     		strb	r2, [r3]
 237:.\Generated_Source\PSoC4/RFID_REG.c ****                 break;
 342              		.loc 1 237 0
 343 005c C046     		mov	r8, r8
 344              	.L19:
 238:.\Generated_Source\PSoC4/RFID_REG.c ****         }
 239:.\Generated_Source\PSoC4/RFID_REG.c ****     }
 240:.\Generated_Source\PSoC4/RFID_REG.c **** 
 241:.\Generated_Source\PSoC4/RFID_REG.c ****     return(result);
 345              		.loc 1 241 0
 346 005e 3B1C     		mov	r3, r7
 347 0060 0F33     		add	r3, r3, #15
 348 0062 1B78     		ldrb	r3, [r3]
 242:.\Generated_Source\PSoC4/RFID_REG.c **** }
 349              		.loc 1 242 0
 350 0064 181C     		mov	r0, r3
 351 0066 BD46     		mov	sp, r7
 352 0068 04B0     		add	sp, sp, #16
 353              		@ sp needed
 354 006a 80BD     		pop	{r7, pc}
 355              	.L27:
 356              		.align	2
 357              	.L26:
 358 006c 61000F40 		.word	1074724961
 359              		.cfi_endproc
 360              	.LFE6:
 361              		.size	RFID_REG_GetFIFOStatus, .-RFID_REG_GetFIFOStatus
 362              		.section	.text.RFID_REG_SetIntMode,"ax",%progbits
 363              		.align	2
 364              		.global	RFID_REG_SetIntMode
 365              		.code	16
 366              		.thumb_func
 367              		.type	RFID_REG_SetIntMode, %function
 368              	RFID_REG_SetIntMode:
 369              	.LFB7:
 243:.\Generated_Source\PSoC4/RFID_REG.c **** 
 244:.\Generated_Source\PSoC4/RFID_REG.c **** 
 245:.\Generated_Source\PSoC4/RFID_REG.c **** /*******************************************************************************
 246:.\Generated_Source\PSoC4/RFID_REG.c **** * Function Name: RFID_REG_SetIntMode
 247:.\Generated_Source\PSoC4/RFID_REG.c **** ********************************************************************************
 248:.\Generated_Source\PSoC4/RFID_REG.c **** *
 249:.\Generated_Source\PSoC4/RFID_REG.c **** * Summary:
 250:.\Generated_Source\PSoC4/RFID_REG.c **** *  Sets the Interrupt Source for the Shift Register interrupt. Multiple
 251:.\Generated_Source\PSoC4/RFID_REG.c **** *  sources may be ORed together
 252:.\Generated_Source\PSoC4/RFID_REG.c **** *
 253:.\Generated_Source\PSoC4/RFID_REG.c **** * Parameters:
 254:.\Generated_Source\PSoC4/RFID_REG.c **** *  interruptSource: Byte containing the constant for the selected interrupt
 255:.\Generated_Source\PSoC4/RFID_REG.c **** *  source/s.
 256:.\Generated_Source\PSoC4/RFID_REG.c **** *
 257:.\Generated_Source\PSoC4/RFID_REG.c **** * Return:
 258:.\Generated_Source\PSoC4/RFID_REG.c **** *  None.
ARM GAS  C:\Users\En\AppData\Local\Temp\cczN6Kf7.s 			page 12


 259:.\Generated_Source\PSoC4/RFID_REG.c **** *
 260:.\Generated_Source\PSoC4/RFID_REG.c **** *******************************************************************************/
 261:.\Generated_Source\PSoC4/RFID_REG.c **** void RFID_REG_SetIntMode(uint8 interruptSource) 
 262:.\Generated_Source\PSoC4/RFID_REG.c **** {
 370              		.loc 1 262 0
 371              		.cfi_startproc
 372 0000 80B5     		push	{r7, lr}
 373              		.cfi_def_cfa_offset 8
 374              		.cfi_offset 7, -8
 375              		.cfi_offset 14, -4
 376 0002 82B0     		sub	sp, sp, #8
 377              		.cfi_def_cfa_offset 16
 378 0004 00AF     		add	r7, sp, #0
 379              		.cfi_def_cfa_register 7
 380 0006 021C     		mov	r2, r0
 381 0008 FB1D     		add	r3, r7, #7
 382 000a 1A70     		strb	r2, [r3]
 263:.\Generated_Source\PSoC4/RFID_REG.c ****     RFID_REG_SR_STATUS_MASK &= ((uint8) ~RFID_REG_INTS_EN_MASK);          /* Clear existing int */
 383              		.loc 1 263 0
 384 000c 0B4B     		ldr	r3, .L29
 385 000e 0B4A     		ldr	r2, .L29
 386 0010 1278     		ldrb	r2, [r2]
 387 0012 D2B2     		uxtb	r2, r2
 388 0014 0721     		mov	r1, #7
 389 0016 8A43     		bic	r2, r1
 390 0018 D2B2     		uxtb	r2, r2
 391 001a 1A70     		strb	r2, [r3]
 264:.\Generated_Source\PSoC4/RFID_REG.c ****     RFID_REG_SR_STATUS_MASK |= (interruptSource & RFID_REG_INTS_EN_MASK); /* Set int */
 392              		.loc 1 264 0
 393 001c 074B     		ldr	r3, .L29
 394 001e 074A     		ldr	r2, .L29
 395 0020 1278     		ldrb	r2, [r2]
 396 0022 D1B2     		uxtb	r1, r2
 397 0024 FA1D     		add	r2, r7, #7
 398 0026 1078     		ldrb	r0, [r2]
 399 0028 0722     		mov	r2, #7
 400 002a 0240     		and	r2, r0
 401 002c D2B2     		uxtb	r2, r2
 402 002e 0A43     		orr	r2, r1
 403 0030 D2B2     		uxtb	r2, r2
 404 0032 1A70     		strb	r2, [r3]
 265:.\Generated_Source\PSoC4/RFID_REG.c **** }
 405              		.loc 1 265 0
 406 0034 BD46     		mov	sp, r7
 407 0036 02B0     		add	sp, sp, #8
 408              		@ sp needed
 409 0038 80BD     		pop	{r7, pc}
 410              	.L30:
 411 003a C046     		.align	2
 412              	.L29:
 413 003c 81000F40 		.word	1074724993
 414              		.cfi_endproc
 415              	.LFE7:
 416              		.size	RFID_REG_SetIntMode, .-RFID_REG_SetIntMode
 417              		.section	.text.RFID_REG_GetIntStatus,"ax",%progbits
 418              		.align	2
 419              		.global	RFID_REG_GetIntStatus
ARM GAS  C:\Users\En\AppData\Local\Temp\cczN6Kf7.s 			page 13


 420              		.code	16
 421              		.thumb_func
 422              		.type	RFID_REG_GetIntStatus, %function
 423              	RFID_REG_GetIntStatus:
 424              	.LFB8:
 266:.\Generated_Source\PSoC4/RFID_REG.c **** 
 267:.\Generated_Source\PSoC4/RFID_REG.c **** 
 268:.\Generated_Source\PSoC4/RFID_REG.c **** /*******************************************************************************
 269:.\Generated_Source\PSoC4/RFID_REG.c **** * Function Name: RFID_REG_GetIntStatus
 270:.\Generated_Source\PSoC4/RFID_REG.c **** ********************************************************************************
 271:.\Generated_Source\PSoC4/RFID_REG.c **** *
 272:.\Generated_Source\PSoC4/RFID_REG.c **** * Summary:
 273:.\Generated_Source\PSoC4/RFID_REG.c **** *  Gets the Shift Register Interrupt status.
 274:.\Generated_Source\PSoC4/RFID_REG.c **** *
 275:.\Generated_Source\PSoC4/RFID_REG.c **** * Parameters:
 276:.\Generated_Source\PSoC4/RFID_REG.c **** *  None.
 277:.\Generated_Source\PSoC4/RFID_REG.c **** *
 278:.\Generated_Source\PSoC4/RFID_REG.c **** * Return:
 279:.\Generated_Source\PSoC4/RFID_REG.c **** *  Byte containing the constant for the selected interrupt source/s.
 280:.\Generated_Source\PSoC4/RFID_REG.c **** *
 281:.\Generated_Source\PSoC4/RFID_REG.c **** *******************************************************************************/
 282:.\Generated_Source\PSoC4/RFID_REG.c **** uint8 RFID_REG_GetIntStatus(void) 
 283:.\Generated_Source\PSoC4/RFID_REG.c **** {
 425              		.loc 1 283 0
 426              		.cfi_startproc
 427 0000 80B5     		push	{r7, lr}
 428              		.cfi_def_cfa_offset 8
 429              		.cfi_offset 7, -8
 430              		.cfi_offset 14, -4
 431 0002 00AF     		add	r7, sp, #0
 432              		.cfi_def_cfa_register 7
 284:.\Generated_Source\PSoC4/RFID_REG.c ****     return(RFID_REG_SR_STATUS & RFID_REG_INTS_EN_MASK);
 433              		.loc 1 284 0
 434 0004 044B     		ldr	r3, .L33
 435 0006 1B78     		ldrb	r3, [r3]
 436 0008 DAB2     		uxtb	r2, r3
 437 000a 0723     		mov	r3, #7
 438 000c 1340     		and	r3, r2
 439 000e DBB2     		uxtb	r3, r3
 285:.\Generated_Source\PSoC4/RFID_REG.c **** }
 440              		.loc 1 285 0
 441 0010 181C     		mov	r0, r3
 442 0012 BD46     		mov	sp, r7
 443              		@ sp needed
 444 0014 80BD     		pop	{r7, pc}
 445              	.L34:
 446 0016 C046     		.align	2
 447              	.L33:
 448 0018 61000F40 		.word	1074724961
 449              		.cfi_endproc
 450              	.LFE8:
 451              		.size	RFID_REG_GetIntStatus, .-RFID_REG_GetIntStatus
 452              		.section	.text.RFID_REG_WriteRegValue,"ax",%progbits
 453              		.align	2
 454              		.global	RFID_REG_WriteRegValue
 455              		.code	16
 456              		.thumb_func
ARM GAS  C:\Users\En\AppData\Local\Temp\cczN6Kf7.s 			page 14


 457              		.type	RFID_REG_WriteRegValue, %function
 458              	RFID_REG_WriteRegValue:
 459              	.LFB9:
 286:.\Generated_Source\PSoC4/RFID_REG.c **** 
 287:.\Generated_Source\PSoC4/RFID_REG.c **** 
 288:.\Generated_Source\PSoC4/RFID_REG.c **** /*******************************************************************************
 289:.\Generated_Source\PSoC4/RFID_REG.c **** * Function Name: RFID_REG_WriteRegValue
 290:.\Generated_Source\PSoC4/RFID_REG.c **** ********************************************************************************
 291:.\Generated_Source\PSoC4/RFID_REG.c **** *
 292:.\Generated_Source\PSoC4/RFID_REG.c **** * Summary:
 293:.\Generated_Source\PSoC4/RFID_REG.c **** *  Send state directly to shift register
 294:.\Generated_Source\PSoC4/RFID_REG.c **** *
 295:.\Generated_Source\PSoC4/RFID_REG.c **** * Parameters:
 296:.\Generated_Source\PSoC4/RFID_REG.c **** *  shiftData: containing shift register state.
 297:.\Generated_Source\PSoC4/RFID_REG.c **** *
 298:.\Generated_Source\PSoC4/RFID_REG.c **** * Return:
 299:.\Generated_Source\PSoC4/RFID_REG.c **** *  None.
 300:.\Generated_Source\PSoC4/RFID_REG.c **** *
 301:.\Generated_Source\PSoC4/RFID_REG.c **** *******************************************************************************/
 302:.\Generated_Source\PSoC4/RFID_REG.c **** void RFID_REG_WriteRegValue(uint16 shiftData)
 303:.\Generated_Source\PSoC4/RFID_REG.c ****                                                                      
 304:.\Generated_Source\PSoC4/RFID_REG.c **** {
 460              		.loc 1 304 0
 461              		.cfi_startproc
 462 0000 80B5     		push	{r7, lr}
 463              		.cfi_def_cfa_offset 8
 464              		.cfi_offset 7, -8
 465              		.cfi_offset 14, -4
 466 0002 82B0     		sub	sp, sp, #8
 467              		.cfi_def_cfa_offset 16
 468 0004 00AF     		add	r7, sp, #0
 469              		.cfi_def_cfa_register 7
 470 0006 021C     		mov	r2, r0
 471 0008 BB1D     		add	r3, r7, #6
 472 000a 1A80     		strh	r2, [r3]
 305:.\Generated_Source\PSoC4/RFID_REG.c ****     CY_SET_REG16(RFID_REG_SHIFT_REG_LSB_PTR, shiftData);
 473              		.loc 1 305 0
 474 000c 034B     		ldr	r3, .L36
 475 000e BA1D     		add	r2, r7, #6
 476 0010 1288     		ldrh	r2, [r2]
 477 0012 1A80     		strh	r2, [r3]
 306:.\Generated_Source\PSoC4/RFID_REG.c **** }
 478              		.loc 1 306 0
 479 0014 BD46     		mov	sp, r7
 480 0016 02B0     		add	sp, sp, #8
 481              		@ sp needed
 482 0018 80BD     		pop	{r7, pc}
 483              	.L37:
 484 001a C046     		.align	2
 485              	.L36:
 486 001c 00100F40 		.word	1074728960
 487              		.cfi_endproc
 488              	.LFE9:
 489              		.size	RFID_REG_WriteRegValue, .-RFID_REG_WriteRegValue
 490              		.section	.text.RFID_REG_ReadData,"ax",%progbits
 491              		.align	2
 492              		.global	RFID_REG_ReadData
ARM GAS  C:\Users\En\AppData\Local\Temp\cczN6Kf7.s 			page 15


 493              		.code	16
 494              		.thumb_func
 495              		.type	RFID_REG_ReadData, %function
 496              	RFID_REG_ReadData:
 497              	.LFB10:
 307:.\Generated_Source\PSoC4/RFID_REG.c **** 
 308:.\Generated_Source\PSoC4/RFID_REG.c **** 
 309:.\Generated_Source\PSoC4/RFID_REG.c **** #if(0u != RFID_REG_USE_INPUT_FIFO)
 310:.\Generated_Source\PSoC4/RFID_REG.c ****     /*******************************************************************************
 311:.\Generated_Source\PSoC4/RFID_REG.c ****     * Function Name: RFID_REG_WriteData
 312:.\Generated_Source\PSoC4/RFID_REG.c ****     ********************************************************************************
 313:.\Generated_Source\PSoC4/RFID_REG.c ****     *
 314:.\Generated_Source\PSoC4/RFID_REG.c ****     * Summary:
 315:.\Generated_Source\PSoC4/RFID_REG.c ****     *  Send state to FIFO for later transfer to shift register based on the Load
 316:.\Generated_Source\PSoC4/RFID_REG.c ****     *  input
 317:.\Generated_Source\PSoC4/RFID_REG.c ****     *
 318:.\Generated_Source\PSoC4/RFID_REG.c ****     * Parameters:
 319:.\Generated_Source\PSoC4/RFID_REG.c ****     *  shiftData: containing shift register state.
 320:.\Generated_Source\PSoC4/RFID_REG.c ****     *
 321:.\Generated_Source\PSoC4/RFID_REG.c ****     * Return:
 322:.\Generated_Source\PSoC4/RFID_REG.c ****     *  Indicates: successful execution of function
 323:.\Generated_Source\PSoC4/RFID_REG.c ****     *  when FIFO is empty; and error when FIFO is full.
 324:.\Generated_Source\PSoC4/RFID_REG.c ****     *
 325:.\Generated_Source\PSoC4/RFID_REG.c ****     * Reentrant:
 326:.\Generated_Source\PSoC4/RFID_REG.c ****     *  No.
 327:.\Generated_Source\PSoC4/RFID_REG.c ****     *
 328:.\Generated_Source\PSoC4/RFID_REG.c ****     *******************************************************************************/
 329:.\Generated_Source\PSoC4/RFID_REG.c ****     cystatus RFID_REG_WriteData(uint16 shiftData)
 330:.\Generated_Source\PSoC4/RFID_REG.c ****                                                                          
 331:.\Generated_Source\PSoC4/RFID_REG.c ****     {
 332:.\Generated_Source\PSoC4/RFID_REG.c ****         cystatus result;
 333:.\Generated_Source\PSoC4/RFID_REG.c **** 
 334:.\Generated_Source\PSoC4/RFID_REG.c ****         result = CYRET_INVALID_STATE;
 335:.\Generated_Source\PSoC4/RFID_REG.c **** 
 336:.\Generated_Source\PSoC4/RFID_REG.c ****         /* Writes data into the input FIFO if it is not FULL */
 337:.\Generated_Source\PSoC4/RFID_REG.c ****         if(RFID_REG_RET_FIFO_FULL != (RFID_REG_GetFIFOStatus(RFID_REG_IN_FIFO)))
 338:.\Generated_Source\PSoC4/RFID_REG.c ****         {
 339:.\Generated_Source\PSoC4/RFID_REG.c ****             CY_SET_REG16(RFID_REG_IN_FIFO_VAL_LSB_PTR, shiftData);
 340:.\Generated_Source\PSoC4/RFID_REG.c ****             result = CYRET_SUCCESS;
 341:.\Generated_Source\PSoC4/RFID_REG.c ****         }
 342:.\Generated_Source\PSoC4/RFID_REG.c **** 
 343:.\Generated_Source\PSoC4/RFID_REG.c ****         return(result);
 344:.\Generated_Source\PSoC4/RFID_REG.c ****     }
 345:.\Generated_Source\PSoC4/RFID_REG.c **** #endif /* (0u != RFID_REG_USE_INPUT_FIFO) */
 346:.\Generated_Source\PSoC4/RFID_REG.c **** 
 347:.\Generated_Source\PSoC4/RFID_REG.c **** 
 348:.\Generated_Source\PSoC4/RFID_REG.c **** #if(0u != RFID_REG_USE_OUTPUT_FIFO)
 349:.\Generated_Source\PSoC4/RFID_REG.c ****     /*******************************************************************************
 350:.\Generated_Source\PSoC4/RFID_REG.c ****     * Function Name: RFID_REG_ReadData
 351:.\Generated_Source\PSoC4/RFID_REG.c ****     ********************************************************************************
 352:.\Generated_Source\PSoC4/RFID_REG.c ****     *
 353:.\Generated_Source\PSoC4/RFID_REG.c ****     * Summary:
 354:.\Generated_Source\PSoC4/RFID_REG.c ****     *  Returns state in FIFO due to Store input.
 355:.\Generated_Source\PSoC4/RFID_REG.c ****     *
 356:.\Generated_Source\PSoC4/RFID_REG.c ****     * Parameters:
 357:.\Generated_Source\PSoC4/RFID_REG.c ****     *  None.
 358:.\Generated_Source\PSoC4/RFID_REG.c ****     *
ARM GAS  C:\Users\En\AppData\Local\Temp\cczN6Kf7.s 			page 16


 359:.\Generated_Source\PSoC4/RFID_REG.c ****     * Return:
 360:.\Generated_Source\PSoC4/RFID_REG.c ****     *  Shift Register state
 361:.\Generated_Source\PSoC4/RFID_REG.c ****     *
 362:.\Generated_Source\PSoC4/RFID_REG.c ****     * Reentrant:
 363:.\Generated_Source\PSoC4/RFID_REG.c ****     *  No.
 364:.\Generated_Source\PSoC4/RFID_REG.c ****     *
 365:.\Generated_Source\PSoC4/RFID_REG.c ****     *******************************************************************************/
 366:.\Generated_Source\PSoC4/RFID_REG.c ****     uint16 RFID_REG_ReadData(void) 
 367:.\Generated_Source\PSoC4/RFID_REG.c ****     {
 498              		.loc 1 367 0
 499              		.cfi_startproc
 500 0000 80B5     		push	{r7, lr}
 501              		.cfi_def_cfa_offset 8
 502              		.cfi_offset 7, -8
 503              		.cfi_offset 14, -4
 504 0002 00AF     		add	r7, sp, #0
 505              		.cfi_def_cfa_register 7
 368:.\Generated_Source\PSoC4/RFID_REG.c ****         return(CY_GET_REG16(RFID_REG_OUT_FIFO_VAL_LSB_PTR));
 506              		.loc 1 368 0
 507 0004 024B     		ldr	r3, .L40
 508 0006 1B88     		ldrh	r3, [r3]
 509 0008 9BB2     		uxth	r3, r3
 369:.\Generated_Source\PSoC4/RFID_REG.c ****     }
 510              		.loc 1 369 0
 511 000a 181C     		mov	r0, r3
 512 000c BD46     		mov	sp, r7
 513              		@ sp needed
 514 000e 80BD     		pop	{r7, pc}
 515              	.L41:
 516              		.align	2
 517              	.L40:
 518 0010 A0100F40 		.word	1074729120
 519              		.cfi_endproc
 520              	.LFE10:
 521              		.size	RFID_REG_ReadData, .-RFID_REG_ReadData
 522              		.section	.text.RFID_REG_ReadRegValue,"ax",%progbits
 523              		.align	2
 524              		.global	RFID_REG_ReadRegValue
 525              		.code	16
 526              		.thumb_func
 527              		.type	RFID_REG_ReadRegValue, %function
 528              	RFID_REG_ReadRegValue:
 529              	.LFB11:
 370:.\Generated_Source\PSoC4/RFID_REG.c **** #endif /* (0u != RFID_REG_USE_OUTPUT_FIFO) */
 371:.\Generated_Source\PSoC4/RFID_REG.c **** 
 372:.\Generated_Source\PSoC4/RFID_REG.c **** 
 373:.\Generated_Source\PSoC4/RFID_REG.c **** /*******************************************************************************
 374:.\Generated_Source\PSoC4/RFID_REG.c **** * Function Name: RFID_REG_ReadRegValue
 375:.\Generated_Source\PSoC4/RFID_REG.c **** ********************************************************************************
 376:.\Generated_Source\PSoC4/RFID_REG.c **** *
 377:.\Generated_Source\PSoC4/RFID_REG.c **** * Summary:
 378:.\Generated_Source\PSoC4/RFID_REG.c **** *  Directly returns current state in shift register, not data in FIFO due
 379:.\Generated_Source\PSoC4/RFID_REG.c **** *  to Store input.
 380:.\Generated_Source\PSoC4/RFID_REG.c **** *
 381:.\Generated_Source\PSoC4/RFID_REG.c **** * Parameters:
 382:.\Generated_Source\PSoC4/RFID_REG.c **** *  None.
 383:.\Generated_Source\PSoC4/RFID_REG.c **** *
ARM GAS  C:\Users\En\AppData\Local\Temp\cczN6Kf7.s 			page 17


 384:.\Generated_Source\PSoC4/RFID_REG.c **** * Return:
 385:.\Generated_Source\PSoC4/RFID_REG.c **** *  Shift Register state. Clears output FIFO.
 386:.\Generated_Source\PSoC4/RFID_REG.c **** *
 387:.\Generated_Source\PSoC4/RFID_REG.c **** * Reentrant:
 388:.\Generated_Source\PSoC4/RFID_REG.c **** *  No.
 389:.\Generated_Source\PSoC4/RFID_REG.c **** *
 390:.\Generated_Source\PSoC4/RFID_REG.c **** *******************************************************************************/
 391:.\Generated_Source\PSoC4/RFID_REG.c **** uint16 RFID_REG_ReadRegValue(void) 
 392:.\Generated_Source\PSoC4/RFID_REG.c **** {
 530              		.loc 1 392 0
 531              		.cfi_startproc
 532 0000 80B5     		push	{r7, lr}
 533              		.cfi_def_cfa_offset 8
 534              		.cfi_offset 7, -8
 535              		.cfi_offset 14, -4
 536 0002 82B0     		sub	sp, sp, #8
 537              		.cfi_def_cfa_offset 16
 538 0004 00AF     		add	r7, sp, #0
 539              		.cfi_def_cfa_register 7
 393:.\Generated_Source\PSoC4/RFID_REG.c ****     uint16 result;
 394:.\Generated_Source\PSoC4/RFID_REG.c **** 
 395:.\Generated_Source\PSoC4/RFID_REG.c ****     /* Clear FIFO before software capture */
 396:.\Generated_Source\PSoC4/RFID_REG.c ****     while(RFID_REG_RET_FIFO_EMPTY != RFID_REG_GetFIFOStatus(RFID_REG_OUT_FIFO))
 540              		.loc 1 396 0
 541 0006 01E0     		b	.L43
 542              	.L44:
 397:.\Generated_Source\PSoC4/RFID_REG.c ****     {
 398:.\Generated_Source\PSoC4/RFID_REG.c ****         (void) CY_GET_REG16(RFID_REG_OUT_FIFO_VAL_LSB_PTR);
 543              		.loc 1 398 0
 544 0008 0C4B     		ldr	r3, .L46
 545 000a 1B88     		ldrh	r3, [r3]
 546              	.L43:
 396:.\Generated_Source\PSoC4/RFID_REG.c ****     while(RFID_REG_RET_FIFO_EMPTY != RFID_REG_GetFIFOStatus(RFID_REG_OUT_FIFO))
 547              		.loc 1 396 0 discriminator 1
 548 000c 0220     		mov	r0, #2
 549 000e FFF7FEFF 		bl	RFID_REG_GetFIFOStatus
 550 0012 031C     		mov	r3, r0
 551 0014 022B     		cmp	r3, #2
 552 0016 F7D1     		bne	.L44
 399:.\Generated_Source\PSoC4/RFID_REG.c ****     }
 400:.\Generated_Source\PSoC4/RFID_REG.c **** 
 401:.\Generated_Source\PSoC4/RFID_REG.c ****     /* Read of 8 bits from A1 causes capture to output FIFO */
 402:.\Generated_Source\PSoC4/RFID_REG.c ****     (void) CY_GET_REG8(RFID_REG_SHIFT_REG_CAPTURE_PTR);
 553              		.loc 1 402 0
 554 0018 094B     		ldr	r3, .L46+4
 555 001a 1B78     		ldrb	r3, [r3]
 403:.\Generated_Source\PSoC4/RFID_REG.c **** 
 404:.\Generated_Source\PSoC4/RFID_REG.c ****     /* Read output FIFO */
 405:.\Generated_Source\PSoC4/RFID_REG.c ****     result  = CY_GET_REG16(RFID_REG_OUT_FIFO_VAL_LSB_PTR);
 556              		.loc 1 405 0
 557 001c 074A     		ldr	r2, .L46
 558 001e BB1D     		add	r3, r7, #6
 559 0020 1288     		ldrh	r2, [r2]
 560 0022 1A80     		strh	r2, [r3]
 406:.\Generated_Source\PSoC4/RFID_REG.c ****     
 407:.\Generated_Source\PSoC4/RFID_REG.c ****     #if(0u != (RFID_REG_SR_SIZE % 8u))
 408:.\Generated_Source\PSoC4/RFID_REG.c ****         result &= ((uint16) RFID_REG_SR_MASK);
ARM GAS  C:\Users\En\AppData\Local\Temp\cczN6Kf7.s 			page 18


 561              		.loc 1 408 0
 562 0024 BB1D     		add	r3, r7, #6
 563 0026 BA1D     		add	r2, r7, #6
 564 0028 1288     		ldrh	r2, [r2]
 565 002a 9205     		lsl	r2, r2, #22
 566 002c 920D     		lsr	r2, r2, #22
 567 002e 1A80     		strh	r2, [r3]
 409:.\Generated_Source\PSoC4/RFID_REG.c ****     #endif /* (0u != (RFID_REG_SR_SIZE % 8u)) */
 410:.\Generated_Source\PSoC4/RFID_REG.c ****     
 411:.\Generated_Source\PSoC4/RFID_REG.c ****     return(result);
 568              		.loc 1 411 0
 569 0030 BB1D     		add	r3, r7, #6
 570 0032 1B88     		ldrh	r3, [r3]
 412:.\Generated_Source\PSoC4/RFID_REG.c **** }
 571              		.loc 1 412 0
 572 0034 181C     		mov	r0, r3
 573 0036 BD46     		mov	sp, r7
 574 0038 02B0     		add	sp, sp, #8
 575              		@ sp needed
 576 003a 80BD     		pop	{r7, pc}
 577              	.L47:
 578              		.align	2
 579              	.L46:
 580 003c A0100F40 		.word	1074729120
 581 0040 10000F40 		.word	1074724880
 582              		.cfi_endproc
 583              	.LFE11:
 584              		.size	RFID_REG_ReadRegValue, .-RFID_REG_ReadRegValue
 585              		.text
 586              	.Letext0:
 587              		.file 2 ".\\Generated_Source\\PSoC4\\cytypes.h"