ARM GAS  C:\Users\En\AppData\Local\Temp\ccBI3sLf.s 			page 1


   1              		.cpu cortex-m0
   2              		.fpu softvfp
   3              		.eabi_attribute 20, 1
   4              		.eabi_attribute 21, 1
   5              		.eabi_attribute 23, 3
   6              		.eabi_attribute 24, 1
   7              		.eabi_attribute 25, 1
   8              		.eabi_attribute 26, 1
   9              		.eabi_attribute 30, 6
  10              		.eabi_attribute 34, 0
  11              		.eabi_attribute 18, 4
  12              		.code	16
  13              		.file	"RFID_REG_PM.c"
  14              		.text
  15              	.Ltext0:
  16              		.cfi_sections	.debug_frame
  17              		.bss
  18              		.align	2
  19              	RFID_REG_backup:
  20 0000 00000000 		.space	6
  20      0000
  21 0006 0000     		.section	.text.RFID_REG_SaveConfig,"ax",%progbits
  22              		.align	2
  23              		.global	RFID_REG_SaveConfig
  24              		.code	16
  25              		.thumb_func
  26              		.type	RFID_REG_SaveConfig, %function
  27              	RFID_REG_SaveConfig:
  28              	.LFB0:
  29              		.file 1 ".\\Generated_Source\\PSoC4\\RFID_REG_PM.c"
   1:.\Generated_Source\PSoC4/RFID_REG_PM.c **** /*******************************************************************************
   2:.\Generated_Source\PSoC4/RFID_REG_PM.c **** * File Name: RFID_REG_PM.c
   3:.\Generated_Source\PSoC4/RFID_REG_PM.c **** * Version 2.30
   4:.\Generated_Source\PSoC4/RFID_REG_PM.c **** *
   5:.\Generated_Source\PSoC4/RFID_REG_PM.c **** * Description:
   6:.\Generated_Source\PSoC4/RFID_REG_PM.c **** *  This file provides the API source code for sleep mode support for Shift
   7:.\Generated_Source\PSoC4/RFID_REG_PM.c **** *  Register component.
   8:.\Generated_Source\PSoC4/RFID_REG_PM.c **** *
   9:.\Generated_Source\PSoC4/RFID_REG_PM.c **** * Note:
  10:.\Generated_Source\PSoC4/RFID_REG_PM.c **** *
  11:.\Generated_Source\PSoC4/RFID_REG_PM.c **** ********************************************************************************
  12:.\Generated_Source\PSoC4/RFID_REG_PM.c **** * Copyright 2008-2013, Cypress Semiconductor Corporation.  All rights reserved.
  13:.\Generated_Source\PSoC4/RFID_REG_PM.c **** * You may use this file only in accordance with the license, terms, conditions,
  14:.\Generated_Source\PSoC4/RFID_REG_PM.c **** * disclaimers, and limitations in the end user license agreement accompanying
  15:.\Generated_Source\PSoC4/RFID_REG_PM.c **** * the software package with which this file was provided.
  16:.\Generated_Source\PSoC4/RFID_REG_PM.c **** *******************************************************************************/
  17:.\Generated_Source\PSoC4/RFID_REG_PM.c **** 
  18:.\Generated_Source\PSoC4/RFID_REG_PM.c **** #include "RFID_REG.h"
  19:.\Generated_Source\PSoC4/RFID_REG_PM.c **** 
  20:.\Generated_Source\PSoC4/RFID_REG_PM.c **** static RFID_REG_BACKUP_STRUCT RFID_REG_backup =
  21:.\Generated_Source\PSoC4/RFID_REG_PM.c **** {
  22:.\Generated_Source\PSoC4/RFID_REG_PM.c ****     RFID_REG_DISABLED,
  23:.\Generated_Source\PSoC4/RFID_REG_PM.c **** 
  24:.\Generated_Source\PSoC4/RFID_REG_PM.c ****     ((uint16) RFID_REG_DEFAULT_A0),
  25:.\Generated_Source\PSoC4/RFID_REG_PM.c ****     ((uint16) RFID_REG_DEFAULT_A1),
  26:.\Generated_Source\PSoC4/RFID_REG_PM.c **** 
  27:.\Generated_Source\PSoC4/RFID_REG_PM.c ****     #if(CY_UDB_V0)
ARM GAS  C:\Users\En\AppData\Local\Temp\ccBI3sLf.s 			page 2


  28:.\Generated_Source\PSoC4/RFID_REG_PM.c ****         ((uint16) RFID_REG_INT_SRC),
  29:.\Generated_Source\PSoC4/RFID_REG_PM.c ****     #endif /* (CY_UDB_V0) */
  30:.\Generated_Source\PSoC4/RFID_REG_PM.c **** };
  31:.\Generated_Source\PSoC4/RFID_REG_PM.c **** 
  32:.\Generated_Source\PSoC4/RFID_REG_PM.c **** 
  33:.\Generated_Source\PSoC4/RFID_REG_PM.c **** /*******************************************************************************
  34:.\Generated_Source\PSoC4/RFID_REG_PM.c **** * Function Name: RFID_REG_SaveConfig
  35:.\Generated_Source\PSoC4/RFID_REG_PM.c **** ********************************************************************************
  36:.\Generated_Source\PSoC4/RFID_REG_PM.c **** *
  37:.\Generated_Source\PSoC4/RFID_REG_PM.c **** * Summary:
  38:.\Generated_Source\PSoC4/RFID_REG_PM.c **** *  Saves Shift Register configuration.
  39:.\Generated_Source\PSoC4/RFID_REG_PM.c **** *
  40:.\Generated_Source\PSoC4/RFID_REG_PM.c **** * Parameters:
  41:.\Generated_Source\PSoC4/RFID_REG_PM.c **** *  None.
  42:.\Generated_Source\PSoC4/RFID_REG_PM.c **** *
  43:.\Generated_Source\PSoC4/RFID_REG_PM.c **** * Return:
  44:.\Generated_Source\PSoC4/RFID_REG_PM.c **** *  None.
  45:.\Generated_Source\PSoC4/RFID_REG_PM.c **** *
  46:.\Generated_Source\PSoC4/RFID_REG_PM.c **** * Reentrant:
  47:.\Generated_Source\PSoC4/RFID_REG_PM.c **** *  No.
  48:.\Generated_Source\PSoC4/RFID_REG_PM.c **** *
  49:.\Generated_Source\PSoC4/RFID_REG_PM.c **** *******************************************************************************/
  50:.\Generated_Source\PSoC4/RFID_REG_PM.c **** void RFID_REG_SaveConfig(void) 
  51:.\Generated_Source\PSoC4/RFID_REG_PM.c **** {
  30              		.loc 1 51 0
  31              		.cfi_startproc
  32 0000 80B5     		push	{r7, lr}
  33              		.cfi_def_cfa_offset 8
  34              		.cfi_offset 7, -8
  35              		.cfi_offset 14, -4
  36 0002 00AF     		add	r7, sp, #0
  37              		.cfi_def_cfa_register 7
  52:.\Generated_Source\PSoC4/RFID_REG_PM.c ****     /* Store working registers A0 and A1 */
  53:.\Generated_Source\PSoC4/RFID_REG_PM.c ****     RFID_REG_backup.saveSrA0Reg   = CY_GET_REG16(RFID_REG_SHIFT_REG_LSB_PTR);
  38              		.loc 1 53 0
  39 0004 054B     		ldr	r3, .L2
  40 0006 1B88     		ldrh	r3, [r3]
  41 0008 9AB2     		uxth	r2, r3
  42 000a 054B     		ldr	r3, .L2+4
  43 000c 5A80     		strh	r2, [r3, #2]
  54:.\Generated_Source\PSoC4/RFID_REG_PM.c ****     RFID_REG_backup.saveSrA1Reg   = CY_GET_REG16(RFID_REG_SHIFT_REG_VALUE_LSB_PTR);
  44              		.loc 1 54 0
  45 000e 054B     		ldr	r3, .L2+8
  46 0010 1B88     		ldrh	r3, [r3]
  47 0012 9AB2     		uxth	r2, r3
  48 0014 024B     		ldr	r3, .L2+4
  49 0016 9A80     		strh	r2, [r3, #4]
  55:.\Generated_Source\PSoC4/RFID_REG_PM.c **** 
  56:.\Generated_Source\PSoC4/RFID_REG_PM.c ****     #if(CY_UDB_V0)
  57:.\Generated_Source\PSoC4/RFID_REG_PM.c ****         RFID_REG_backup.saveSrIntMask = RFID_REG_SR_STATUS_MASK;
  58:.\Generated_Source\PSoC4/RFID_REG_PM.c ****     #endif /* (CY_UDB_V0) */
  59:.\Generated_Source\PSoC4/RFID_REG_PM.c **** }
  50              		.loc 1 59 0
  51 0018 BD46     		mov	sp, r7
  52              		@ sp needed
  53 001a 80BD     		pop	{r7, pc}
  54              	.L3:
ARM GAS  C:\Users\En\AppData\Local\Temp\ccBI3sLf.s 			page 3


  55              		.align	2
  56              	.L2:
  57 001c 00100F40 		.word	1074728960
  58 0020 00000000 		.word	RFID_REG_backup
  59 0024 20100F40 		.word	1074728992
  60              		.cfi_endproc
  61              	.LFE0:
  62              		.size	RFID_REG_SaveConfig, .-RFID_REG_SaveConfig
  63              		.section	.text.RFID_REG_RestoreConfig,"ax",%progbits
  64              		.align	2
  65              		.global	RFID_REG_RestoreConfig
  66              		.code	16
  67              		.thumb_func
  68              		.type	RFID_REG_RestoreConfig, %function
  69              	RFID_REG_RestoreConfig:
  70              	.LFB1:
  60:.\Generated_Source\PSoC4/RFID_REG_PM.c **** 
  61:.\Generated_Source\PSoC4/RFID_REG_PM.c **** 
  62:.\Generated_Source\PSoC4/RFID_REG_PM.c **** /*******************************************************************************
  63:.\Generated_Source\PSoC4/RFID_REG_PM.c **** * Function Name: RFID_REG_RestoreConfig
  64:.\Generated_Source\PSoC4/RFID_REG_PM.c **** ********************************************************************************
  65:.\Generated_Source\PSoC4/RFID_REG_PM.c **** *
  66:.\Generated_Source\PSoC4/RFID_REG_PM.c **** * Summary:
  67:.\Generated_Source\PSoC4/RFID_REG_PM.c **** *  Restores Shift Register configuration.
  68:.\Generated_Source\PSoC4/RFID_REG_PM.c **** *
  69:.\Generated_Source\PSoC4/RFID_REG_PM.c **** * Parameters:
  70:.\Generated_Source\PSoC4/RFID_REG_PM.c **** *  None.
  71:.\Generated_Source\PSoC4/RFID_REG_PM.c **** *
  72:.\Generated_Source\PSoC4/RFID_REG_PM.c **** * Return:
  73:.\Generated_Source\PSoC4/RFID_REG_PM.c **** *  None.
  74:.\Generated_Source\PSoC4/RFID_REG_PM.c **** *
  75:.\Generated_Source\PSoC4/RFID_REG_PM.c **** *******************************************************************************/
  76:.\Generated_Source\PSoC4/RFID_REG_PM.c **** void RFID_REG_RestoreConfig(void) 
  77:.\Generated_Source\PSoC4/RFID_REG_PM.c **** {
  71              		.loc 1 77 0
  72              		.cfi_startproc
  73 0000 80B5     		push	{r7, lr}
  74              		.cfi_def_cfa_offset 8
  75              		.cfi_offset 7, -8
  76              		.cfi_offset 14, -4
  77 0002 00AF     		add	r7, sp, #0
  78              		.cfi_def_cfa_register 7
  78:.\Generated_Source\PSoC4/RFID_REG_PM.c ****     /* Restore working registers A0 and A1 */
  79:.\Generated_Source\PSoC4/RFID_REG_PM.c ****     CY_SET_REG16(RFID_REG_SHIFT_REG_LSB_PTR, RFID_REG_backup.saveSrA0Reg);
  79              		.loc 1 79 0
  80 0004 044B     		ldr	r3, .L5
  81 0006 054A     		ldr	r2, .L5+4
  82 0008 5288     		ldrh	r2, [r2, #2]
  83 000a 1A80     		strh	r2, [r3]
  80:.\Generated_Source\PSoC4/RFID_REG_PM.c ****     CY_SET_REG16(RFID_REG_SHIFT_REG_VALUE_LSB_PTR, RFID_REG_backup.saveSrA1Reg);
  84              		.loc 1 80 0
  85 000c 044B     		ldr	r3, .L5+8
  86 000e 034A     		ldr	r2, .L5+4
  87 0010 9288     		ldrh	r2, [r2, #4]
  88 0012 1A80     		strh	r2, [r3]
  81:.\Generated_Source\PSoC4/RFID_REG_PM.c **** 
  82:.\Generated_Source\PSoC4/RFID_REG_PM.c ****     #if(CY_UDB_V0)
ARM GAS  C:\Users\En\AppData\Local\Temp\ccBI3sLf.s 			page 4


  83:.\Generated_Source\PSoC4/RFID_REG_PM.c ****         RFID_REG_SR_STATUS_MASK = ((uint8) RFID_REG_backup.saveSrIntMask);
  84:.\Generated_Source\PSoC4/RFID_REG_PM.c ****     #endif /* (CY_UDB_V0) */
  85:.\Generated_Source\PSoC4/RFID_REG_PM.c **** }
  89              		.loc 1 85 0
  90 0014 BD46     		mov	sp, r7
  91              		@ sp needed
  92 0016 80BD     		pop	{r7, pc}
  93              	.L6:
  94              		.align	2
  95              	.L5:
  96 0018 00100F40 		.word	1074728960
  97 001c 00000000 		.word	RFID_REG_backup
  98 0020 20100F40 		.word	1074728992
  99              		.cfi_endproc
 100              	.LFE1:
 101              		.size	RFID_REG_RestoreConfig, .-RFID_REG_RestoreConfig
 102              		.section	.text.RFID_REG_Sleep,"ax",%progbits
 103              		.align	2
 104              		.global	RFID_REG_Sleep
 105              		.code	16
 106              		.thumb_func
 107              		.type	RFID_REG_Sleep, %function
 108              	RFID_REG_Sleep:
 109              	.LFB2:
  86:.\Generated_Source\PSoC4/RFID_REG_PM.c **** 
  87:.\Generated_Source\PSoC4/RFID_REG_PM.c **** 
  88:.\Generated_Source\PSoC4/RFID_REG_PM.c **** /*******************************************************************************
  89:.\Generated_Source\PSoC4/RFID_REG_PM.c **** * Function Name: RFID_REG_Sleep
  90:.\Generated_Source\PSoC4/RFID_REG_PM.c **** ********************************************************************************
  91:.\Generated_Source\PSoC4/RFID_REG_PM.c **** *
  92:.\Generated_Source\PSoC4/RFID_REG_PM.c **** * Summary:
  93:.\Generated_Source\PSoC4/RFID_REG_PM.c **** *  Prepare the component to enter a Sleep mode.
  94:.\Generated_Source\PSoC4/RFID_REG_PM.c **** *
  95:.\Generated_Source\PSoC4/RFID_REG_PM.c **** * Parameters:
  96:.\Generated_Source\PSoC4/RFID_REG_PM.c **** *  None.
  97:.\Generated_Source\PSoC4/RFID_REG_PM.c **** *
  98:.\Generated_Source\PSoC4/RFID_REG_PM.c **** * Return:
  99:.\Generated_Source\PSoC4/RFID_REG_PM.c **** *  None.
 100:.\Generated_Source\PSoC4/RFID_REG_PM.c **** *
 101:.\Generated_Source\PSoC4/RFID_REG_PM.c **** * Reentrant:
 102:.\Generated_Source\PSoC4/RFID_REG_PM.c **** *  No.
 103:.\Generated_Source\PSoC4/RFID_REG_PM.c **** *
 104:.\Generated_Source\PSoC4/RFID_REG_PM.c **** *******************************************************************************/
 105:.\Generated_Source\PSoC4/RFID_REG_PM.c **** void RFID_REG_Sleep(void) 
 106:.\Generated_Source\PSoC4/RFID_REG_PM.c **** {
 110              		.loc 1 106 0
 111              		.cfi_startproc
 112 0000 80B5     		push	{r7, lr}
 113              		.cfi_def_cfa_offset 8
 114              		.cfi_offset 7, -8
 115              		.cfi_offset 14, -4
 116 0002 00AF     		add	r7, sp, #0
 117              		.cfi_def_cfa_register 7
 107:.\Generated_Source\PSoC4/RFID_REG_PM.c ****     RFID_REG_backup.enableState = ((uint8) RFID_REG_IS_ENABLED);
 118              		.loc 1 107 0
 119 0004 084B     		ldr	r3, .L8
 120 0006 1B78     		ldrb	r3, [r3]
ARM GAS  C:\Users\En\AppData\Local\Temp\ccBI3sLf.s 			page 5


 121 0008 DBB2     		uxtb	r3, r3
 122 000a 1A1C     		mov	r2, r3
 123 000c 0123     		mov	r3, #1
 124 000e 1340     		and	r3, r2
 125 0010 5A1E     		sub	r2, r3, #1
 126 0012 9341     		sbc	r3, r3, r2
 127 0014 DBB2     		uxtb	r3, r3
 128 0016 1A1C     		mov	r2, r3
 129 0018 044B     		ldr	r3, .L8+4
 130 001a 1A70     		strb	r2, [r3]
 108:.\Generated_Source\PSoC4/RFID_REG_PM.c **** 
 109:.\Generated_Source\PSoC4/RFID_REG_PM.c ****     RFID_REG_Stop();
 131              		.loc 1 109 0
 132 001c FFF7FEFF 		bl	RFID_REG_Stop
 110:.\Generated_Source\PSoC4/RFID_REG_PM.c ****     RFID_REG_SaveConfig();
 133              		.loc 1 110 0
 134 0020 FFF7FEFF 		bl	RFID_REG_SaveConfig
 111:.\Generated_Source\PSoC4/RFID_REG_PM.c **** }
 135              		.loc 1 111 0
 136 0024 BD46     		mov	sp, r7
 137              		@ sp needed
 138 0026 80BD     		pop	{r7, pc}
 139              	.L9:
 140              		.align	2
 141              	.L8:
 142 0028 70000F40 		.word	1074724976
 143 002c 00000000 		.word	RFID_REG_backup
 144              		.cfi_endproc
 145              	.LFE2:
 146              		.size	RFID_REG_Sleep, .-RFID_REG_Sleep
 147              		.section	.text.RFID_REG_Wakeup,"ax",%progbits
 148              		.align	2
 149              		.global	RFID_REG_Wakeup
 150              		.code	16
 151              		.thumb_func
 152              		.type	RFID_REG_Wakeup, %function
 153              	RFID_REG_Wakeup:
 154              	.LFB3:
 112:.\Generated_Source\PSoC4/RFID_REG_PM.c **** 
 113:.\Generated_Source\PSoC4/RFID_REG_PM.c **** 
 114:.\Generated_Source\PSoC4/RFID_REG_PM.c **** /*******************************************************************************
 115:.\Generated_Source\PSoC4/RFID_REG_PM.c **** * Function Name: RFID_REG_Wakeup
 116:.\Generated_Source\PSoC4/RFID_REG_PM.c **** ********************************************************************************
 117:.\Generated_Source\PSoC4/RFID_REG_PM.c **** *
 118:.\Generated_Source\PSoC4/RFID_REG_PM.c **** * Summary:
 119:.\Generated_Source\PSoC4/RFID_REG_PM.c **** *  Restores and enables the user configuration.
 120:.\Generated_Source\PSoC4/RFID_REG_PM.c **** *
 121:.\Generated_Source\PSoC4/RFID_REG_PM.c **** * Parameters:
 122:.\Generated_Source\PSoC4/RFID_REG_PM.c **** *  None.
 123:.\Generated_Source\PSoC4/RFID_REG_PM.c **** *
 124:.\Generated_Source\PSoC4/RFID_REG_PM.c **** * Return:
 125:.\Generated_Source\PSoC4/RFID_REG_PM.c **** *  None.
 126:.\Generated_Source\PSoC4/RFID_REG_PM.c **** *
 127:.\Generated_Source\PSoC4/RFID_REG_PM.c **** *******************************************************************************/
 128:.\Generated_Source\PSoC4/RFID_REG_PM.c **** void RFID_REG_Wakeup(void) 
 129:.\Generated_Source\PSoC4/RFID_REG_PM.c **** {
 155              		.loc 1 129 0
ARM GAS  C:\Users\En\AppData\Local\Temp\ccBI3sLf.s 			page 6


 156              		.cfi_startproc
 157 0000 80B5     		push	{r7, lr}
 158              		.cfi_def_cfa_offset 8
 159              		.cfi_offset 7, -8
 160              		.cfi_offset 14, -4
 161 0002 00AF     		add	r7, sp, #0
 162              		.cfi_def_cfa_register 7
 130:.\Generated_Source\PSoC4/RFID_REG_PM.c ****     RFID_REG_RestoreConfig();
 163              		.loc 1 130 0
 164 0004 FFF7FEFF 		bl	RFID_REG_RestoreConfig
 131:.\Generated_Source\PSoC4/RFID_REG_PM.c **** 
 132:.\Generated_Source\PSoC4/RFID_REG_PM.c ****     if(0u != RFID_REG_backup.enableState)
 165              		.loc 1 132 0
 166 0008 034B     		ldr	r3, .L12
 167 000a 1B78     		ldrb	r3, [r3]
 168 000c 002B     		cmp	r3, #0
 169 000e 01D0     		beq	.L10
 133:.\Generated_Source\PSoC4/RFID_REG_PM.c ****     {
 134:.\Generated_Source\PSoC4/RFID_REG_PM.c ****         RFID_REG_Enable();
 170              		.loc 1 134 0
 171 0010 FFF7FEFF 		bl	RFID_REG_Enable
 172              	.L10:
 135:.\Generated_Source\PSoC4/RFID_REG_PM.c ****     }
 136:.\Generated_Source\PSoC4/RFID_REG_PM.c **** }
 173              		.loc 1 136 0
 174 0014 BD46     		mov	sp, r7
 175              		@ sp needed
 176 0016 80BD     		pop	{r7, pc}
 177              	.L13:
 178              		.align	2
 179              	.L12:
 180 0018 00000000 		.word	RFID_REG_backup
 181              		.cfi_endproc
 182              	.LFE3:
 183              		.size	RFID_REG_Wakeup, .-RFID_REG_Wakeup
 184              		.text
 185              	.Letext0:
 186              		.file 2 ".\\Generated_Source\\PSoC4\\cytypes.h"
 187              		.file 3 ".\\Generated_Source\\PSoC4\\RFID_REG.h"